(dp0
S''
p1
I191572
sS'the most'
p2
I2281
sS'while ordering'
p3
I38
sS'Roboto, sans-serif;"><br></span></div>'
p4
I5
sS'imagine!! So'
p5
I94
sS'u there.................'
p6
I1
sS'out door'
p7
I111
sS"what's your"
p8
I350
sS'sans-serif;">*boiled corn'
p9
I2
sS"Let's Get"
p10
I167
sS'padding: 0px;">4.'
p11
I14
sS'May 15,'
p12
I42
sS'label.</div><div style="box-sizing:'
p13
I7
sS'Here begins'
p14
I107
sS'your updates,still'
p15
I1
sS'additional fitness'
p16
I290
sS'Good one\r\n&nbsp;'
p17
I1
sS'Roboto, sans-serif;"></span><span'
p18
I1
sS'aim to'
p19
I315
sS'bare hands,'
p20
I44
sS'in shopping!</span><div'
p21
I1
sS'worry if'
p22
I91
sS'crunchy salads'
p23
I62
sS"Mitali<br>How's it"
p24
I1
sS'alt="" /></p>'
p25
I121
sS'engaging with'
p26
I42
sS'1.2;"><br style="box-sizing:'
p27
I56
sS'will make'
p28
I617
sS'target, to'
p29
I2
sS'!important; opacity:'
p30
I466
sS'thinks that'
p31
I46
sS'and have'
p32
I1474
sS'music to'
p33
I10
sS'Can we'
p34
I1299
sS'a detailed'
p35
I45
sS're-energized and'
p36
I30
sS'814.875px;"><div class="row'
p37
I287
sS'boost!&nbsp;???\x9f&nbsp;<br data-mce-bogus="1">'
p38
I2
sS'from you'
p39
I4771
sS'cells from'
p40
I129
sS'our call.&nbsp;</span><a'
p41
I7
sS'a week...'
p42
I124
sS'pieces\r\n<div><br />A'
p43
I1
sS'it going?</span><br'
p44
I7
sS'do we'
p45
I901
sS'be Start'
p46
I21
sS'daily upload'
p47
I1
sS'get active,'
p48
I64
sS'#5d5d5d; font-family:'
p49
I3134
sS'start our'
p50
I301
sS'padding: 0px;">Make'
p51
I1
sS'54); font-family:'
p52
I299
sS'and excitement,'
p53
I76
sS'16.7999992370605px;">,&nbsp;</span><span style="box-sizing:'
p54
I1
sS'the intake'
p55
I132
sS'with peanut'
p56
I46
sS'would pave'
p57
I61
sS'remember these'
p58
I180
sS'pleasure and'
p59
I77
sS'action!<br /><br'
p60
I3
sS'can D-A-N-C-E!'
p61
I12
sS'add those'
p62
I27
sS'2 grams'
p63
I190
sS'sound good'
p64
I59
sS'foods that'
p65
I336
sS'macronutrient-&nbsp;</span><strong style="box-sizing:'
p66
I6
sS'for an'
p67
I1099
sS'has been'
p68
I679
sS'hydrogenated oil'
p69
I196
sS'R u'
p70
I40
sS'while enjoying'
p71
I115
sS'believe you'
p72
I203
sS'Mine was'
p73
I46
sS'you-</span><br style="box-sizing:'
p74
I1
sS'you up'
p75
I785
sS'line-height: 16.7999992370605px;">Bela'
p76
I11
sS'places,going shopping,etc.'
p77
I19
sS'a mango'
p78
I5
sS'13.3333339691162px;">*whole wheat'
p79
I1
sS'margin: 0px'
p80
I6515
sS'the wagon'
p81
I300
sS'src="http://goqii-app.s3.amazonaws.com/user/user/s_1426669929.jpg" alt=""'
p82
I1
sS'coach would'
p83
I134
sS'padding: 0px;">1.Don\x83??t'
p84
I1
sS'continued coaching'
p85
I5
sS'on interval'
p86
I35
sS'LAZY SUNDAY'
p87
I56
sS'I truly'
p88
I61
sS'truly believe'
p89
I53
sS'targets consistently!'
p90
I22
sS'initial; background-clip:'
p91
I736
sS'targets consistently.'
p92
I49
sS'your band'
p93
I3264
sS'had a'
p94
I2748
sS'are walking'
p95
I29
sS'protect your'
p96
I81
sS'optionsWhole wheat'
p97
I1
sS'counts and'
p98
I661
sS'on feeling'
p99
I119
sS'food you'
p100
I151
sS'Try a'
p101
I390
sS'new cells'
p102
I63
sS'the energy'
p103
I68
sS'Thus, enabling'
p104
I22
sS'line-height: 16.7999992370605px;">Check'
p105
I81
sS'wheat Grilled'
p106
I2
sS'adequate supply'
p107
I7
sS'my new'
p108
I137
sS'to stay'
p109
I656
sS'you skip'
p110
I88
sS'( example:'
p111
I151
sS'calculate the'
p112
I172
sS'line-height: 1.2;">how'
p113
I5
sS'an ability'
p114
I44
sS'further with'
p115
I4
sS'my coach'
p116
I134
sS'to start'
p117
I1591
sS'Hey Player,You'
p118
I16
sS'activity that'
p119
I109
sS'distey.partial or'
p120
I1
sS'padding: 0px;">It\'s'
p121
I1
sS'28 days,'
p122
I58
sS'Roasted,Steamed) #betheforce'
p123
I76
sS'of good'
p124
I173
sS'you back'
p125
I631
sS'related issues'
p126
I7
sS'suitable time'
p127
I617
sS'have got'
p128
I348
sS'stretches to'
p129
I13
sS'its great'
p130
I35
sS'have to'
p131
I3094
sS'obstacles that'
p132
I2
sS'body with'
p133
I719
sS'to analyze'
p134
I39
sS'with at'
p135
I214
sS'is May'
p136
I42
sS'little more'
p137
I693
sS'you can'
p138
I7478
sS'all I'
p139
I153
sS'steps.<o:p></o:p></span></p>\r\n\r\n<p class="MsoNormal"'
p140
I1
sS'by listening'
p141
I180
sS'better day'
p142
I137
sS'healthy.Your subscription'
p143
I4
sS'do it.????&nbsp;'
p144
I1
sS'your step'
p145
I2004
sS'line-height: 16.7999992370605px;">Let\'s'
p146
I118
sS'Hey Mitali,<br><br>As'
p147
I1
sS"Let's get"
p148
I679
sS'the day!!'
p149
I75
sS'interval training,'
p150
I38
sS'the label.<br'
p151
I64
sS'going for'
p152
I540
sS'our health!</div>\r\n<div'
p153
I11
sS'wagon and'
p154
I77
sS'goes live'
p155
I77
sS'Roboto, sans-serif;'
p156
I7123
sS'goals. Since'
p157
I48
sS'coaching soon.'
p158
I5
sS'are not'
p159
I1255
sS'class="imageViewerInLarge" src="http://goqii-app.s3.amazonaws.com/user/images/s_1398239257.jpg"'
p160
I1
sS'which 2'
p161
I45
sS'antioxidants from'
p162
I2
sS'66, 66);"><div'
p163
I4
sS'sandwich</span></div>\r\n<div><span style="color:'
p164
I2
sS'target. If'
p165
I43
sS'or negative.</p>\r\n<p>Ok?:)</p>'
p166
I1
sS'Just try'
p167
I61
sS'sim to'
p168
I1
sS'down and'
p169
I153
sS'85); font-family:'
p170
I84
sS'hi kuchiku'
p171
I1
sS'today is'
p172
I271
sS'body keeping'
p173
I7
sS'direction!</span><br style="box-sizing:'
p174
I1
sS'to do'
p175
I3891
sS'loading!&nbsp;???\x9f&nbsp;<br><br>Which workouts/activities'
p176
I1
sS'Hey hi,'
p177
I2
sS'Roman&quot;;\r\nmso-bidi-font-family:Arial;color:#222222">Hope you'
p178
I1
sS'over in'
p179
I23
sS'workout status?</span>'
p180
I1
sS'10)ORDER'
p181
I38
sS'a fabulous'
p182
I58
sS'padding: 0px;">5.'
p183
I14
sS'Anybody can'
p184
I12
sS'active on'
p185
I563
sS'which I'
p186
I747
sS'/><br style="box-sizing:'
p187
I1540
sS"it's gonna"
p188
I156
sS'too difficult..'
p189
I64
sS'in this.'
p190
I62
sS'sugar, the'
p191
I181
sS'never imagine!!'
p192
I104
sS'is to'
p193
I1940
sS'stay healthy.Your'
p194
I4
sS'RELAXATION time'
p195
I56
sS'have already'
p196
I564
sS'others achieve'
p197
I66
sS'them together'
p198
I83
sS'8)Prepare'
p199
I38
sS'been emphasizing'
p200
I24
sS'You may'
p201
I166
sS'Lumia yet.'
p202
I1
sS'in.. The'
p203
I22
sS'from putting'
p204
I171
sS'day by'
p205
I494
sS'Hi Satish,<span'
p206
I2
sS'have a'
p207
I9622
sS'analyse your'
p208
I426
sS'<span style="box-sizing:'
p209
I2172
sS'Life Story'
p210
I50
sS'pieces with'
p211
I45
sS'do. Thus,'
p212
I57
sS'sans-serif;">*at times'
p213
I2
sS'blog post'
p214
I65
sS'change you.'
p215
I57
sS'the sim'
p216
I83
sS'butter</span></div>\r\n<div><span style="color:'
p217
I2
sS'none; vertical-align:'
p218
I463
sS'me through'
p219
I64
sS'taking a'
p220
I251
sS'atleast reach'
p221
I1
sS'simple cues'
p222
I37
sS'the more'
p223
I616
sS'inspiration comes'
p224
I66
sS'our workouts,'
p225
I30
sS'Please start'
p226
I63
sS'href="http://bit.ly/1smgaiI" target="_blank"><span'
p227
I15
sS'hit your'
p228
I347
sS'about GOQii,'
p229
I266
sS'by it.'
p230
I8
sS'Tip:Weekend time'
p231
I19
sS'change your'
p232
I221
sS'stuff to'
p233
I48
sS'whom I'
p234
I118
sS'Shine and'
p235
I37
sS"Hey Player,Today's"
p236
I16
sS'New Roman&quot;;mso-bidi-font-family:Arial;\r\ncolor:#1155CC">http://bit.ly/1smgaiI</span></a><span'
p237
I1
sS'nutsMoong or'
p238
I1
sS'date-box" style="box-sizing:'
p239
I517
sS'\r\nmindful while'
p240
I21
sS'be fooled'
p241
I186
sS"I'm chatting"
p242
I1
sS'has several'
p243
I34
sS'the small'
p244
I255
sS'And how'
p245
I171
sS'THE WEEKDAYS'
p246
I38
sS'your weekend?'
p247
I1814
sS'My core'
p248
I13
sS'line-height: 16.7999992370605px;">How'
p249
I529
sS'max-width: 100%;'
p250
I1544
sS'a drop'
p251
I17
sS'!important; z-index:'
p252
I466
sS'out my'
p253
I388
sS'Hey Coach'
p254
I43
sS'highlight a'
p255
I66
sS'Healthy weekend'
p256
I60
sS'link for'
p257
I892
sS'alt="" data-mce-src="http://goqii-app.s3.amazonaws.com/user/user/s_1426740460.jpg">'
p258
I1
sS'gear to'
p259
I37
sS'have yesterday?'
p260
I13
sS'arial, sans-serif;'
p261
I806
sS'you know'
p262
I1228
sS'favorite food/relaxing/travelling/meeting'
p263
I3
sS'it easier'
p264
I46
sS'how you'
p265
I465
sS'class="row text">While\r\n'
p266
I1
sS'fooled by'
p267
I186
sS'and based'
p268
I49
sS'Roboto, sans-serif;"></div><div><span'
p269
I5
sS'a little'
p270
I1796
sS'since last'
p271
I91
sS'me know,'
p272
I419
sS'there! :)'
p273
I28
sS'eat one'
p274
I114
sS'glad\r\nto have'
p275
I1
sS'veggie sandwich</span><br'
p276
I1
sS'93); font-size:'
p277
I67
sS'watch this'
p278
I378
sS'wheat bread'
p279
I378
sS'Peanut butterA'
p280
I1
sS'new stuff'
p281
I16
sS'yourself full'
p282
I24
sS'\r\nlegs moving'
p283
I1
sS'it&nbsp;<img src="http://goqii-app.s3.amazonaws.com/emoticons/smiley-smile.gif"'
p284
I50
sS'during the'
p285
I1147
sS"it's sugar,"
p286
I37
sS'Roboto, sans-serif;">*fruit'
p287
I2
sS"What's the"
p288
I339
sS'have us'
p289
I14
sS'or sambhar.<br'
p290
I1
sS'to music'
p291
I57
sS'Roman&quot;;mso-bidi-font-family:Arial;\r\ncolor:#222222">Refer to'
p292
I1
sS'log as'
p293
I134
sS'GOQii anthem'
p294
I182
sS'0px;"><div style="box-sizing:'
p295
I13
sS'several other'
p296
I38
sS'66);"><div class="pull-right'
p297
I4
sS'line-height: 16.7999992370605px;">&nbsp;sometimes'
p298
I2
sS'All time'
p299
I13
sS'last 2'
p300
I158
sS'fitness activity)'
p301
I211
sS'friends ,'
p302
I49
sS'A GOQii'
p303
I51
sS'gradual process..'
p304
I52
sS'16.7999992370605px;">PROTEIN.</strong><div style="box-sizing:'
p305
I7
sS'via our'
p306
I284
sS'consistently! When'
p307
I22
sS'through player'
p308
I1
sS'processed and'
p309
I43
sS'getting familiarized'
p310
I7
sS'gets over'
p311
I27
sS'sleep will'
p312
I141
sS'want to'
p313
I2637
sS'you EXCEL'
p314
I11
sS'it kick-started'
p315
I167
sS'16.7999992370605px;">Proteins play'
p316
I7
sS'you to'
p317
I7154
sS'<br>The weekend'
p318
I49
sS'calling is'
p319
I1
sS'tomato chutney'
p320
I16
sS'doesn\x83??t change'
p321
I33
sS'In fact,'
p322
I67
sS"you'd never"
p323
I109
sS'today than'
p324
I106
sS'in hybernate.&nbsp;<img'
p325
I1
sS'stay \r\nmindful'
p326
I21
sS'to make'
p327
I2950
sS'src="http://goqii-app.s3.amazonaws.com/emoticons/smiley-music.gif" alt=""'
p328
I8
sS'padding: 0px;"><div'
p329
I20
sS'if you'
p330
I6129
sS'nutrition (food'
p331
I329
sS'Roboto, sans-serif;">*whole'
p332
I2
sS'to hear'
p333
I2901
sS'a kingdom'
p334
I60
sS'a gradual'
p335
I63
sS'the super'
p336
I58
sS'New Roman&quot;;mso-bidi-font-family:Arial;\r\ncolor:#222222">To'
p337
I1
sS'Hi Mitali,<span'
p338
I2
sS'Mitra,&nbsp;<span style="box-sizing:'
p339
I1
sS'0px;">4. Avoid'
p340
I2
sS'more information'
p341
I270
sS'walnuts)&nbsp;Roasted MakhanasRoasted'
p342
I1
sS'figure out'
p343
I147
sS'the list'
p344
I399
sS'Would you'
p345
I740
sS'always the'
p346
I455
sS'font-size: 12px;'
p347
I385
sS'solved and'
p348
I10
sS'to GOQii.'
p349
I200
sS'the active'
p350
I226
sS'say? :)'
p351
I25
sS'eat again,'
p352
I46
sS'tip for'
p353
I198
sS'2 days..'
p354
I38
sS'plz change'
p355
I1
sS"delay? Let's"
p356
I9
sS'you-</span></div>\r\n<div><span style="color:'
p357
I2
sS'center; font-size:'
p358
I497
sS'jaggery-wheat based'
p359
I41
sS'worked towards'
p360
I27
sS'with someone'
p361
I92
sS'currants, figs,'
p362
I2
sS'not getting'
p363
I485
sS'Not just'
p364
I13
sS'at least'
p365
I1224
sS'you and'
p366
I1266
sS'post on'
p367
I26
sS'to us'
p368
I385
sS'meals, your'
p369
I52
sS'Roman&quot;;mso-bidi-font-family:Arial;\r\ncolor:#1155CC">http://bit.ly/1smgaiI</span></a><span style="font-family:&quot;Verdana&quot;,&quot;sans-serif&quot;;\r\nmso-fareast-font-family:&quot;Times'
p370
I1
sS'water you'
p371
I143
sS'us with'
p372
I195
sS'butterA cup'
p373
I1
sS'at 11am.'
p374
I13
sS'HAVE'
p375
I70
sS'counts since'
p376
I16
sS'of those'
p377
I181
sS'are using'
p378
I140
sS'door games,'
p379
I23
sS'16.7999992370605px;">You must'
p380
I11
sS'keep going...!!'
p381
I99
sS'pasta with'
p382
I193
sS'class="MsoNormal"><span style="font-family:&quot;Verdana&quot;,&quot;sans-serif&quot;">&nbsp;</span></p>'
p383
I1
sS'0px; line-height:'
p384
I442
sS'evening snacking'
p385
I5
sS'border-box; margin:'
p386
I6205
sS'great Willpower'
p387
I44
sS'sans-serif;">weekend is'
p388
I1
sS'with paneer'
p389
I42
sS'as my'
p390
I276
sS'healthier lifestyle.'
p391
I217
sS":) We'll"
p392
I101
sS'dashboard.<img class="imageViewerInLarge"'
p393
I3
sS'to it'
p394
I1238
sS'width: 814.875px;"><div'
p395
I289
sS'you soon.&nbsp;</span><div'
p396
I1
sS'you drink'
p397
I195
sS'yeah.. speak'
p398
I1
sS'better I'
p399
I34
sS'left: 0px'
p400
I498
sS'color: rgb(255,'
p401
I1150
sS'U-turn right'
p402
I5
sS'on our'
p403
I1597
sS'getting active'
p404
I41
sS'13.3333339691162px;" /><span'
p405
I8
sS'just aim'
p406
I32
sS'to remember'
p407
I319
sS'Hi Mitali<br>I'
p408
I1
sS'corn chaat</span></div>\r\n<div><span'
p409
I2
sS'max-width: 64px'
p410
I466
sS':No Matter'
p411
I20
sS'MakhanasRoasted pumpkin'
p412
I1
sS'my All'
p413
I12
sS'great if'
p414
I599
sS'indulge in'
p415
I380
sS'some crunchy'
p416
I62
sS'with you....Exercise'
p417
I20
sS'information about\r\nyour'
p418
I1
sS'nuts</span><br style="box-sizing:'
p419
I3
sS'away more'
p420
I46
sS'/>Why add'
p421
I7
sS'style="margin-bottom: 0.0001pt;'
p422
I92
sS'get the'
p423
I896
sS'Avoid foods'
p424
I186
sS'begin with,'
p425
I28
sS'weekend buddy!'
p426
I25
sS'puran poli'
p427
I177
sS'days and'
p428
I454
sS'more about'
p429
I1154
sS'0.0001pt; background-image:'
p430
I57
sS'or sambhar.</span></div>\r\n<div><span'
p431
I2
sS'that Willpower'
p432
I44
sS'months. Your'
p433
I57
sS'Mitali<br>Good Morning'
p434
I2
sS'a party'
p435
I258
sS'you set'
p436
I252
sS'down a'
p437
I280
sS'gifted us'
p438
I25
sS'13.3333339691162px;">*fruit yogurt'
p439
I1
sS'Hiiiii Mitali????&nbsp;<br>How'
p440
I1
sS'best of'
p441
I87
sS'Nice start'
p442
I8
sS'and sleep'
p443
I672
sS'the Beta'
p444
I26
sS'all the'
p445
I3356
sS'more healthy'
p446
I350
sS'healthier you!&nbsp;<img'
p447
I3
sS'are still'
p448
I246
sS'is loading!&nbsp;???\x9f&nbsp;<br><br>Which'
p449
I1
sS'health goals.<br'
p450
I57
sS'getting it'
p451
I31
sS'0px 8px;'
p452
I351
sS'....<br>How about'
p453
I2
sS'have u'
p454
I172
sS'Willpower too.'
p455
I44
sS'your bare'
p456
I44
sS'float: right;'
p457
I577
sS'a GOQii'
p458
I617
sS'introductory call'
p459
I514
sS'color="#5d5d5d" face="Roboto,'
p460
I65
sS'so lets'
p461
I255
sS'anthem https://soundcloud.com/goqii/betheforce-goqii'
p462
I115
sS'Presentation, we'
p463
I321
sS'can u'
p464
I791
sS'enabling us'
p465
I22
sS'16.7999992370605px;"></span><span style="box-sizing:'
p466
I14
sS'healthy lifestyle.'
p467
I190
sS'kick-started by'
p468
I167
sS'it and'
p469
I1980
sS'2)SPLURGE'
p470
I38
sS'With immense'
p471
I76
sS'Mitali,&nbsp;<span style="color:'
p472
I1
sS'live in'
p473
I202
sS'What exercise'
p474
I44
sS'Mitali,&nbsp;<span style="box-sizing:'
p475
I1
sS'data.. :)'
p476
I2
sS'syncing it!'
p477
I13
sS'active here.&nbsp;</span><font'
p478
I1
sS'I right?'
p479
I180
sS'comes from'
p480
I97
sS'cup of'
p481
I505
sS'all your'
p482
I653
sS'Great To'
p483
I22
sS'16.7999992370605px;">Hope we'
p484
I1
sS'Mitali,<span style="color:'
p485
I2
sS'padding: 0px;"></div><div'
p486
I930
sS'style="line-height: 1.2;'
p487
I10
sS'our GOQii'
p488
I2086
sS'height: auto;"></div></div></div></div><div'
p489
I1
sS'Satish!<br /><br'
p490
I3
sS'help you'
p491
I4376
sS'not too'
p492
I147
sS'bread with'
p493
I114
sS'you in'
p494
I2081
sS'have an'
p495
I1951
sS'Good morning'
p496
I2541
sS'time zone'
p497
I51
sS'this goal.'
p498
I22
sS'and repair'
p499
I37
sS'your coach'
p500
I1930
sS"Buddy! It's"
p501
I42
sS'some colorful'
p502
I62
sS'is a'
p503
I9033
sS'to you?</span></div>\r\n<span'
p504
I1
sS'the morning'
p505
I2295
sS'that a'
p506
I938
sS'imbibe more'
p507
I5
sS'New Roman&quot;;\r\nmso-bidi-font-family:Arial;color:#222222">Hope'
p508
I1
sS'our exciting'
p509
I135
sS'class="imageViewerInLarge" src="http://goqii-app.s3.amazonaws.com/conversation/1413798273_100X100.png"'
p510
I1
sS'long walks'
p511
I51
sS'Quality and'
p512
I24
sS'that I'
p513
I3152
sS'by day'
p514
I232
sS'to sachin.'
p515
I2
sS'band data..'
p516
I59
sS'minute we'
p517
I27
sS'position: relative'
p518
I514
sS'rejuvenate the'
p519
I43
sS'9)Dont'
p520
I38
sS'progress bar'
p521
I69
sS'Dipti</p>\r\n<p>Yes I'
p522
I1
sS'24.0000019073486px;">Do they'
p523
I1
sS'every SMART'
p524
I103
sS'Shimpli. .How'
p525
I1
sS'&nbsp;</span><br data-mce-bogus="1">'
p526
I230
sS'directly proportional'
p527
I86
sS'-webkit-perspective: none'
p528
I466
sS"Player... Here's"
p529
I25
sS'hello mitali'
p530
I1
sS'a major'
p531
I160
sS'margin: 0px;'
p532
I6374
sS'healthy habits.</div><div><br></div><div>https://goqii.com/renewals&nbsp;</div>'
p533
I2
sS'no Gym'
p534
I2
sS'morning Mitali<br><br><br>'
p535
I1
sS'background-position: initial;'
p536
I736
sS'Hey player..'
p537
I21
sS'good health.'
p538
I158
sS'13.3333339691162px;">*roasted makhanas</span><br'
p539
I1
sS"Here's what"
p540
I15
sS'updating your'
p541
I549
sS'hands, and'
p542
I44
sS'yes got'
p543
I9
sS'and check'
p544
I69
sS'7)Get enough'
p545
I38
sS'When you'
p546
I477
sS'sure you'
p547
I4427
sS'your workout????\x9f&nbsp;'
p548
I1
sS'background-clip: initial;'
p549
I737
sS'pieces!! :)'
p550
I44
sS'or soy'
p551
I13
sS'contain partially'
p552
I186
sS'morning Mitali'
p553
I11
sS'!important; width:'
p554
I475
sS'0px; color:'
p555
I5889
sS'fiber per'
p556
I186
sS'choice while'
p557
I38
sS'can plan'
p558
I266
sS'a better'
p559
I495
sS'schedule a'
p560
I910
sS'it has'
p561
I493
sS'Everybody should'
p562
I12
sS'through phone'
p563
I5
sS'0px; padding:'
p564
I6305
sS'everybody on'
p565
I20
sS'New Roman&quot;;mso-bidi-font-family:Arial;\r\ncolor:#222222">&nbsp;<o:p></o:p></span></p>\r\n\r\n<p'
p566
I1
sS'were yesterday.'
p567
I54
sS'/>Waiting to'
p568
I204
sS'and high'
p569
I286
sS'chopped veggies</span><br'
p570
I3
sS'makhanas</span></div>\r\n<div><span style="color:'
p571
I2
sS'a day'
p572
I2757
sS'New Roman&quot;;\r\nmso-bidi-font-family:Arial;color:#222222">Welcome'
p573
I1
sS'16.7999992370605px;">Check it'
p574
I33
sS'packaged foods,'
p575
I37
sS'way'
p576
I8670
sS'one of'
p577
I1598
sS'that GOQii'
p578
I168
sS'background-size: initial;'
p579
I737
sS'numbers are'
p580
I5
sS'Hey Mitz..'
p581
I1
sS'13.3333339691162px;" /><br'
p582
I20
sS'extension period'
p583
I5
sS'polluting your'
p584
I171
sS'summer offer'
p585
I6
sS'returned to'
p586
I130
sS'get started'
p587
I699
sS'some RELAXATION'
p588
I56
sS'with natural'
p589
I350
sS'could work'
p590
I94
sS'more exciting'
p591
I46
sS'and your'
p592
I1529
sS'<p>Hi Dipti</p>\r\n<p>Yes'
p593
I1
sS'Coach,<br /><br'
p594
I6
sS'initial; background-position:'
p595
I736
sS'more than'
p596
I1670
sS'were yesterday'
p597
I95
sS'away from'
p598
I619
sS'usual resulting'
p599
I46
sS'To Start,You'
p600
I21
sS'today preferably&nbsp;'
p601
I1
sS'it out-&nbsp;https://goqii.com/blog/interval-training-to-put-your-fat-on-flame/</span>'
p602
I24
sS'No problem'
p603
I227
sS'over a'
p604
I1591
sS'listening to'
p605
I259
sS'workouts, and'
p606
I1
sS'Hi Mitali!&nbsp;<br'
p607
I1
sS'sans-serif;">I have'
p608
I3
sS'alt="????" /><br'
p609
I43
sS'resize: none'
p610
I467
sS'late reply'
p611
I115
sS'FIRST ingredient'
p612
I177
sS'yourself from'
p613
I199
sS'I enjoy'
p614
I102
sS'16.7999992370605px;">Let\'s calculate'
p615
I7
sS'with, start'
p616
I7
sS'src="http://goqii-app.s3.amazonaws.com/user/user/s_1424510585.jpg" alt=""'
p617
I2
sS'be Great:)'
p618
I21
sS'everyday.. which'
p619
I61
sS'plan out'
p620
I92
sS'plan our'
p621
I149
sS'sans-serif; font-size:'
p622
I7464
sS'sans-serif;">if you'
p623
I1
sS'nn'
p624
I2
sS'those targets'
p625
I50
sS'up your'
p626
I814
sS'they do.'
p627
I1
sS'be Great'
p628
I44
sS'share your'
p629
I1649
sS'was your'
p630
I4464
sS'full power'
p631
I11
sS'routine via'
p632
I299
sS'are finding'
p633
I92
sS'add tremendous'
p634
I24
sS'transparent !important;"'
p635
I353
sS'even after'
p636
I169
sS'today- My'
p637
I18
sS'to delay'
p638
I90
sS'0px;">If you'
p639
I22
sS'0px;"></div><div style="box-sizing:'
p640
I901
sS'intake of'
p641
I276
sS'this video:&nbsp;</span><a'
p642
I8
sS'inline !important;'
p643
I470
sS'the WEEK'
p644
I39
sS'user with'
p645
I9
sS'to connect'
p646
I1563
sS'weekend'
p647
I12637
sS'corn chaat</span><br'
p648
I1
sS'Last but'
p649
I190
sS'I feel'
p650
I350
sS'5)Schedule'
p651
I38
sS'make our'
p652
I378
sS'physically better'
p653
I117
sS'ChillaBoiled Sprout'
p654
I1
sS'Stretch... Find'
p655
I22
sS'and keep'
p656
I1252
sS'time'
p657
I20090
sS'we need'
p658
I1567
sS'body weight?</div>'
p659
I15
sS'control-group" style="box-sizing:'
p660
I584
sS':)'
p661
I16362
sS'line-height: 21.6000003814697px;"'
p662
I1800
sS'some instant'
p663
I37
sS'make a'
p664
I1308
sS'your weekend'
p665
I4200
sS'and a'
p666
I10020
sS'Health Tip:How'
p667
I15
sS'mango in'
p668
I1
sS'going with'
p669
I1402
sS'at the'
p670
I4689
sS'is fun,'
p671
I13
sS"Thus, it's"
p672
I277
sS'and I'
p673
I2956
sS'GOQii Band\r\nand'
p674
I1
sS'tomorrow i.e.'
p675
I79
sS'morning Player!'
p676
I38
sS'would fill'
p677
I167
sS'8)Prepare for'
p678
I38
sS'some stretches'
p679
I66
sS'rgb(255, 66,'
p680
I282
sS'face="Roboto, sans-serif"><span'
p681
I35
sS'0px;">3. Avoid'
p682
I2
sS'the wrong'
p683
I56
sS'me today'
p684
I336
sS'missing you'
p685
I791
sS'all over.'
p686
I4
sS'and sleep.<o:p></o:p></span></p>\r\n\r\n<p'
p687
I2
sS'growth and'
p688
I31
sS'a king,'
p689
I53
sS'Heyyo buddy'
p690
I1
sS'per laast'
p691
I1
sS'dryfruits (dates,'
p692
I2
sS'with colours,'
p693
I40
sS'here.&nbsp;</span><font color="#5d5d5d"'
p694
I1
sS'feeling physically'
p695
I117
sS'their goals.'
p696
I71
sS'right; width:'
p697
I576
sS'GOQii application.</span><br'
p698
I3
sS'Put them'
p699
I43
sS'I delete'
p700
I11
sS'something I'
p701
I88
sS'a toned'
p702
I133
sS'Tip:You dont'
p703
I21
sS'with crap!<br'
p704
I8
sS'class="imageViewerInLarge" src="http://goqii-app.s3.amazonaws.com/user/images/s_1398265226.jpg"'
p705
I1
sS'of antioxidants'
p706
I276
sS'least, keep'
p707
I38
sS'listed down'
p708
I5
sS'what should'
p709
I132
sS'Mitz.. u'
p710
I1
sS'A LOVELY'
p711
I56
sS'10)ORDER WELL'
p712
I38
sS'So here'
p713
I498
sS'While partying'
p714
I87
sS'buddy... every'
p715
I45
sS'jaggery or'
p716
I48
sS'are always'
p717
I152
sS'body cells'
p718
I316
sS'very sleep'
p719
I5
sS'well, so'
p720
I24
sS'you should.'
p721
I48
sS'exciting journey'
p722
I265
sS'Hello Vishal.'
p723
I1
sS'5 months.'
p724
I60
sS'when we'
p725
I504
sS'when nature'
p726
I24
sS'towards our'
p727
I180
sS'i.e. August'
p728
I76
sS"It's a"
p729
I734
sS'Roman&quot;;mso-bidi-font-family:Arial;\r\ncolor:#222222">I look'
p730
I1
sS'Rise and'
p731
I24
sS'detailed discussion\r\non'
p732
I1
sS'93, 93);'
p733
I3730
sS'with crushed'
p734
I131
sS'1st, 2014,'
p735
I76
sS'very good'
p736
I841
sS'padding: 0px;"></span><span'
p737
I202
sS'your goal'
p738
I2335
sS'was rocking.<br>'
p739
I1
sS'Kishor.<img src="http://goqii-app.s3.amazonaws.com/emoticons/smiley-laughing.gif"'
p740
I1
sS'padding: 0px;'
p741
I6322
sS'to Gym.&nbsp;<br'
p742
I1
sS'initial;"><span style="font-family:&quot;Verdana&quot;,&quot;sans-serif&quot;;mso-fareast-font-family:&quot;Times'
p743
I1
sS'while purchasing'
p744
I41
sS'it doesn\x83??t'
p745
I43
sS'be really'
p746
I154
sS'board!! I'
p747
I31
sS'have you'
p748
I2778
sS'Beta Phase.'
p749
I26
sS'have worked'
p750
I85
sS'Roman&quot;;\r\nmso-bidi-font-family:Arial;color:#222222">Once we'
p751
I1
sS'always some'
p752
I2
sS'Don,t forget'
p753
I1
sS'portion control.'
p754
I109
sS'Roman&quot;;\r\nmso-bidi-font-family:Arial;color:#222222"><o:p></o:p></span></p>\r\n\r\n<p class="MsoNormal"'
p755
I1
sS'You can'
p756
I3754
sS'finishing your'
p757
I2
sS'package. Look'
p758
I144
sS'Hey Mitali,&nbsp;<span'
p759
I2
sS'background-origin: initial;'
p760
I737
sS'to decode'
p761
I37
sS'butter</span><br style="box-sizing:'
p762
I1
sS'font-size: 13.3333339691162px;">*at'
p763
I1
sS'How necessary'
p764
I29
sS'16.7999992370605px;">When do'
p765
I5
sS'in breakfast'
p766
I184
sS'important it'
p767
I45
sS'the new'
p768
I1307
sS'sans-serif;">*whole wheat'
p769
I2
sS'it happen!'
p770
I120
sS'start updating\r\nyour'
p771
I3
sS'target for'
p772
I305
sS'ORS, eat'
p773
I1
sS'Roboto, sans-serif;">&nbsp;</span></div>\r\n<div><span'
p774
I2
sS'health tip'
p775
I86
sS'than aiming'
p776
I91
sS'very rightly'
p777
I45
sS'pour in..'
p778
I22
sS'0px !important;'
p779
I569
sS'stretching, nutrition'
p780
I117
sS'you- When'
p781
I46
sS'need to'
p782
I4290
sS'you these'
p783
I87
sS'started..Our target'
p784
I1
sS'vishalgondal@hotmail.com account'
p785
I1
sS'into four'
p786
I44
sS'we start'
p787
I589
sS'productive'
p788
I245
sS'the matter'
p789
I21
sS'posted. :)'
p790
I24
sS'try my'
p791
I76
sS'with activity'
p792
I25
sS'you. We'
p793
I161
sS'steps..What say?&nbsp;'
p794
I1
sS'line-height: 1;'
p795
I505
sS'will for'
p796
I82
sS'Hey Mitali<span'
p797
I1
sS'(food and'
p798
I356
sS'enjoying the'
p799
I250
sS'my dashboard.<img'
p800
I3
sS'Health Tip'
p801
I273
sS'to the'
p802
I4658
sS'through exercise,'
p803
I118
sS'My blog'
p804
I67
sS'even have'
p805
I21
sS'lined up'
p806
I107
sS'food.<br style="box-sizing:'
p807
I1
sS'Tip :No'
p808
I20
sS'the best'
p809
I1594
sS'Dance!! Not'
p810
I12
sS'(dates, raisins,'
p811
I2
sS'and ingredient'
p812
I187
sS'days?<br data-mce-bogus="1">'
p813
I7
sS'/>A fistful'
p814
I2
sS'player Mitali!'
p815
I1
sS'on! Learn'
p816
I37
sS'1.2em !important;'
p817
I157
sS'to keep'
p818
I2376
sS'period for'
p819
I8
sS'have ORS,'
p820
I1
sS'yet. Waiting'
p821
I2
sS'granola bars,'
p822
I186
sS'Will get'
p823
I103
sS'20 minutes'
p824
I866
sS'did you'
p825
I3871
sS'new activity...Keep'
p826
I22
sS'not only'
p827
I648
sS'title="Grinning Face"'
p828
I62
sS'/>I would'
p829
I477
sS'reach 8000'
p830
I2
sS'App, and'
p831
I7
sS'5)Schedule some'
p832
I38
sS'metabolism slows'
p833
I47
sS'energy boost!&nbsp;???\x9f&nbsp;<br'
p834
I2
sS'going?</span><br style="box-sizing:'
p835
I8
sS'time with'
p836
I670
sS'together and'
p837
I99
sS'stuff and'
p838
I169
sS'GOQii. Be'
p839
I7
sS'none !important;'
p840
I470
sS'10 Tips'
p841
I38
sS'colouring agents'
p842
I24
sS'Health Tip:Rather'
p843
I25
sS'a later'
p844
I127
sS'Roman&quot;;\r\nmso-bidi-font-family:Arial;color:#222222">Welcome to'
p845
I1
sS'line-height: 1.2;"><br'
p846
I62
sS'and co-operation'
p847
I78
sS'to pick'
p848
I116
sS'to atleast'
p849
I173
sS'line-height: 16.7999992370605px;">????</span></font>'
p850
I1
sS'16.7999992370605px;">I believe'
p851
I7
sS'is very'
p852
I1295
sS'we were'
p853
I180
sS'exploring the'
p854
I47
sS'save yourself'
p855
I171
sS'If you'
p856
I3763
sS'chatting with'
p857
I14
sS'helooo mit'
p858
I1
sS'it, I'
p859
I107
sS'your weekend?</span>'
p860
I71
sS'glad to'
p861
I655
sS'Mitali,<br><br>As per'
p862
I1
sS'/>I stared'
p863
I1
sS'back on'
p864
I1529
sS'Corn chatWhole'
p865
I1
sS'I ll'
p866
I312
sS'text" style="box-sizing:'
p867
I663
sS'walks alone'
p868
I2
sS"/>Let's get"
p869
I146
sS'feel very'
p870
I28
sS'half of'
p871
I496
sS'goals.<br /><br'
p872
I68
sS'face="Roboto, sans-serif"'
p873
I69
sS'0px; width:'
p874
I483
sS'rev up'
p875
I33
sS'relatives and'
p876
I78
sS'Satish. Super'
p877
I1
sS'sleep.<o:p></o:p></span></p>\r\n\r\n<p class="MsoNormal"'
p878
I2
sS'I\r\nas your'
p879
I1
sS'plan for'
p880
I962
sS'share with'
p881
I889
sS'line-height: 24.0000019073486px;">Do'
p882
I1
sS'this we'
p883
I4949
sS'exercise, stretching,'
p884
I118
sS'August 1st,'
p885
I76
sS'phone or'
p886
I40
sS'activity! ;)'
p887
I12
sS'today Mitra!!&nbsp;<br><br>Eager'
p888
I1
sS'and goals,'
p889
I15
sS'family, relatives'
p890
I76
sS'nuts</span></div>\r\n<div><span style="color:'
p891
I2
sS'grams of'
p892
I217
sS'on board.<o:p></o:p></span></p>\r\n\r\n<p'
p893
I1
sS'<div style="box-sizing:'
p894
I2456
sS'challenge you,'
p895
I58
sS'to connect.'
p896
I371
sS'but not'
p897
I698
sS'initial; background-size:'
p898
I727
sS'king, nutrition'
p899
I42
sS'avoid the'
p900
I150
sS'veggies</span></div>\r\n<div><span style="color:'
p901
I2
sS"Mitali...What's up"
p902
I1
sS'Player... every'
p903
I48
sS'figs, apricots)</div>'
p904
I2
sS'Roboto, sans-serif;">I'
p905
I29
sS'in WILLPOWER!'
p906
I44
sS'on the'
p907
I7407
sS'be productive'
p908
I62
sS'for sure'
p909
I287
sS'the Energy'
p910
I167
sS'body weight'
p911
I371
sS'can for'
p912
I19
sS'have been'
p913
I1955
sS'afternoon..what to'
p914
I1
sS'you??&nbsp;</div>\r\n<div style="box-sizing:'
p915
I7
sS'3)Eat'
p916
I38
sS'and encourage'
p917
I85
sS'you. :)'
p918
I127
sS'play a'
p919
I92
sS'get regular'
p920
I41
sS'get it'
p921
I542
sS'of dryfruits'
p922
I10
sS'too.&nbsp;</span><div style="box-sizing:'
p923
I2
sS'21.6000003814697px;" /><br'
p924
I547
sS'body metabolism'
p925
I199
sS'in your'
p926
I5517
sS'feel accountable'
p927
I1
sS'border: 0px'
p928
I1885
sS'putting on'
p929
I179
sS'are starving.'
p930
I46
sS'goals too.&nbsp;</span><div'
p931
I2
sS'how are'
p932
I1007
sS'16.7999992370605px;">Do you??&nbsp;</div>\r\n<div'
p933
I7
sS'Will do.'
p934
I45
sS'get connected'
p935
I710
sS'speak to'
p936
I140
sS'nature has'
p937
I24
sS'user login'
p938
I2
sS'10'
p939
I14691
sS'a full'
p940
I71
sS'a halt'
p941
I6
sS'GOQii Coach<i>.</i>&nbsp;First'
p942
I1
sS'0px; background-image:'
p943
I663
sS'protein requirement'
p944
I195
sS'happy to'
p945
I898
sS'waiting to'
p946
I1153
sS'Roboto, sans-serif;">Do'
p947
I2
sS'per your'
p948
I418
sS"Hey Player...What's"
p949
I12
sS'partially hydrogenated'
p950
I215
sS'OUTSIDE'
p951
I56
sS'product is'
p952
I191
sS'per serving'
p953
I190
sS'z-index: inherit'
p954
I466
sS'a 20'
p955
I669
sS'in this!!!'
p956
I11
sS'Dancing is'
p957
I15
sS'achieve their'
p958
I107
sS'or even'
p959
I428
sS'hi mitali\r\n&nbsp;'
p960
I1
sS'are shining'
p961
I6
sS'The quick'
p962
I29
sS'have the'
p963
I1294
sS'The more'
p964
I310
sS'offer to'
p965
I29
sS'your data.<br>Please'
p966
I2
sS'font-family: Roboto,'
p967
I7150
sS'results after'
p968
I108
sS'nuts (almonds,'
p969
I9
sS'21.6000003814697px;" /><span'
p970
I607
sS'step now.What'
p971
I10
sS'eating at'
p972
I27
sS'chocolate bar'
p973
I46
sS'you spend'
p974
I227
sS'93); line-height:'
p975
I372
sS'weekend.. Rise'
p976
I22
sS'16.7999992370605px;">&nbsp;</div>\r\n<div style="box-sizing:'
p977
I184
sS"Heya, Today's"
p978
I20
sS'Thanks for'
p979
I1386
sS'and other'
p980
I807
sS'swirl all'
p981
I40
sS'easy to'
p982
I370
sS'class="imageViewerInLarge" src="http://goqii-app.s3.amazonaws.com/user/user/s_1426740460.jpg"'
p983
I1
sS'it<br data-mce-bogus="1">'
p984
I13
sS'mind and'
p985
I390
sS'do. But'
p986
I3
sS'chopped veggies</span></div>\r\n<div><span'
p987
I2
sS'sans-serif;"></span><span style="color:'
p988
I1
sS'know the'
p989
I1285
sS'1.2; font-family:'
p990
I137
sS'initial; background-repeat:'
p991
I753
sS'requirement as'
p992
I131
sS'ones, make'
p993
I41
sS'coaching date'
p994
I46
sS'as you'
p995
I6552
sS'will discuss\r\nthis'
p996
I1
sS'routine. To'
p997
I8
sS'GOQii life,'
p998
I12
sS'great enthusiasm'
p999
I8
sS'fruit. How'
p1000
I1
sS'src="http://goqii-app.s3.amazonaws.com/emoticons/smiley-laughing.gif" alt=""'
p1001
I2503
sS'few days\r\nincluding'
p1002
I1
sS'reached your'
p1003
I11
sS'learn, you'
p1004
I171
sS'out if'
p1005
I44
sS'!important; resize:'
p1006
I466
sS'Vishal. Ready'
p1007
I1
sS'good work'
p1008
I312
sS'flavoured Chanas/Chickpeas/Soya'
p1009
I3
sS'playing out'
p1010
I92
sS'start syncing'
p1011
I162
sS'it solved'
p1012
I4
sS'other jaggery'
p1013
I39
sS'call and'
p1014
I494
sS'intake is'
p1015
I340
sS'top: 0.25em'
p1016
I427
sS'make is'
p1017
I109
sS'shopping,etc. While'
p1018
I19
sS'make it'
p1019
I2077
sS'helps us'
p1020
I91
sS'missed on'
p1021
I43
sS'easier for'
p1022
I86
sS'to imbibe'
p1023
I5
sS'walks listening'
p1024
I1
sS'which would'
p1025
I952
sS'padding: 0em'
p1026
I466
sS'13.3333339691162px;">*boiled black'
p1027
I1
sS'be multiplied'
p1028
I118
sS'hi Vishal'
p1029
I2
sS'Satish its'
p1030
I2
sS'Waiting for'
p1031
I960
sS'than you'
p1032
I224
sS'and eat.(Grilled,'
p1033
I66
sS'line-height: 16.7999992370605px;">,&nbsp;</span><span'
p1034
I1
sS'Mitali????&nbsp;<br>How was'
p1035
I1
sS'your friend!'
p1036
I181
sS'it difficult'
p1037
I220
sS'64px !important;'
p1038
I466
sS'Band\r\nand App,'
p1039
I1
sS'some processed'
p1040
I37
sS'/><br />Did'
p1041
I661
sS'nasty colouring'
p1042
I24
sS'your time'
p1043
I378
sS'connecting!Glad to'
p1044
I1
sS'AHEAD'
p1045
I59
sS'sans-serif;">Do they'
p1046
I2
sS'shift the'
p1047
I147
sS'your inputs.???\x9b&nbsp;'
p1048
I1
sS'/><br />Keep'
p1049
I318
sS'seedsCorn salad'
p1050
I1
sS'border: 0px;'
p1051
I1551
sS'I am'
p1052
I15363
sS'organic ones\r\n'
p1053
I1
sS'/><br />Glad'
p1054
I372
sS'line-height: 16.7999992370605px;"></span><span'
p1055
I21
sS'try&nbsp; having'
p1056
I1
sS'benefits too!'
p1057
I13
sS'data.<br>Please do'
p1058
I1
sS'13.3333339691162px;">I have'
p1059
I1
sS'SMART CHOICE'
p1060
I106
sS'll try'
p1061
I1866
sS'Am I'
p1062
I188
sS'cues to'
p1063
I85
sS'makhanas</span><br style="box-sizing:'
p1064
I1
sS'to highlight'
p1065
I67
sS'16.7999992370605px;">Bela Gupta,'
p1066
I11
sS'17.7777786254883px; line-height:'
p1067
I89
sS'follow up'
p1068
I120
sS'than usual'
p1069
I181
sS'!important; max-height:'
p1070
I466
sS'Facts label'
p1071
I171
sS'food plate&nbsp;'
p1072
I1
sS'you had'
p1073
I2421
sS'to daily'
p1074
I10
sS'weight or'
p1075
I202
sS'src="http://goqii-app.s3.amazonaws.com/user/images/s_1398239257.jpg" alt=""'
p1076
I1
sS'go ahead.'
p1077
I59
sS'high fructose'
p1078
I213
sS'could watch'
p1079
I57
sS'today ?&nbsp;'
p1080
I44
sS'protein demand'
p1081
I11
sS'/>Glad to'
p1082
I399
sS'right;"><br style="box-sizing:'
p1083
I3
sS'get back'
p1084
I1976
sS'are exploring'
p1085
I47
sS'you do.'
p1086
I94
sS'difficult.. Grab'
p1087
I29
sS'in app'
p1088
I89
sS'now.What say?</div>'
p1089
I5
sS'the \r\nlegs'
p1090
I1
sS'a healthier'
p1091
I540
sS'steps today?'
p1092
I38
sS'fat levels'
p1093
I225
sS'your journey?'
p1094
I2
sS'journey at'
p1095
I350
sS'for you'
p1096
I10110
sS'vertical-align: middle;'
p1097
I1989
sS'minutes call'
p1098
I200
sS'Hi Mitali<br>Good'
p1099
I2
sS'it with'
p1100
I1489
sS'Heya Buddy,Weekend'
p1101
I19
sS'hear from'
p1102
I2307
sS'the Right'
p1103
I23
sS'line-height: 16.7999992370605px;">I'
p1104
I1131
sS'!important; left:'
p1105
I466
sS'force\x83??<o:p></o:p></span></p>\r\n\r\n<p class="MsoNormal"><span'
p1106
I1
sS'font-size: 13.3333339691162px;"'
p1107
I69
sS'boxes)<br style="box-sizing:'
p1108
I1
sS'Hi Mitali<span'
p1109
I1
sS'sweets! If'
p1110
I27
sS'share how'
p1111
I82
sS'days, your'
p1112
I65
sS'Saturday, you'
p1113
I2
sS'you are'
p1114
I12866
sS'not the'
p1115
I674
sS'towards achieving'
p1116
I231
sS'INGREDIENT LIST!</div><div'
p1117
I17
sS'???\x9f<br data-mce-bogus="1">'
p1118
I34
sS'sambhar.</span></div>\r\n<div><span style="color:'
p1119
I2
sS'necessary it'
p1120
I29
sS'chanas with'
p1121
I4
sS'class="msg-box pull-right"'
p1122
I594
sS'line-height: 16.7999992370605px;">Proteins'
p1123
I34
sS'am sure'
p1124
I3338
sS'Hello there!'
p1125
I103
sS'sugar)</div><div style="box-sizing:'
p1126
I4
sS'be ('
p1127
I181
sS'agents to'
p1128
I24
sS'help getting'
p1129
I4
sS'the cells..'
p1130
I29
sS'you excel'
p1131
I54
sS'they sound'
p1132
I2
sS'starving. So'
p1133
I46
sS'constantly working'
p1134
I106
sS'to me'
p1135
I1666
sS'Great lunch'
p1136
I1
sS'Hello coach&nbsp;'
p1137
I2
sS'a U-turn'
p1138
I19
sS'alt="" data-mce-src="http://goqii-app.s3.amazonaws.com/user/user/s_1426669929.jpg">'
p1139
I1
sS'to GOQii'
p1140
I1426
sS'or laptop'
p1141
I17
sS'would like'
p1142
I3713
sS'cereals, granola'
p1143
I186
sS'know more'
p1144
I844
sS'src="http://goqii-app.s3.amazonaws.com/conversation/1413798273_100X100.png" alt=""'
p1145
I1
sS'a happier'
p1146
I61
sS'0px; float:'
p1147
I584
sS'- https://www.youtube.com/watch?v=3Fck3MfuqU8</div>'
p1148
I12
sS'food/relaxing/travelling/meeting friends?</span>'
p1149
I3
sS'WOW!!&nbsp;???\x9f Missed'
p1150
I1
sS'be a'
p1151
I6333
sS'gonna get'
p1152
I53
sS'with me.'
p1153
I619
sS'day and'
p1154
I2861
sS'the extension'
p1155
I11
sS'are, then'
p1156
I5
sS'line-height: 16.7999992370605px;">We'
p1157
I246
sS'the nutrition'
p1158
I109
sS'about the'
p1159
I1448
sS'sans-serif;"></div><div><span style="color:'
p1160
I4
sS'by the'
p1161
I720
sS'( if'
p1162
I137
sS'16.7999992370605px;">,</span><span style="box-sizing:'
p1163
I1
sS'of fiber'
p1164
I602
sS'this!!! :)'
p1165
I11
sS'your food'
p1166
I2851
sS'to break'
p1167
I204
sS'Tejal\r\nGupte, your'
p1168
I1
sS'would really'
p1169
I236
sS'for today'
p1170
I1706
sS'Yeah they'
p1171
I1
sS'reason why'
p1172
I329
sS'got it<br'
p1173
I2
sS'of the'
p1174
I9781
sS'black currants,'
p1175
I2
sS'weight and'
p1176
I315
sS'2014, for'
p1177
I76
sS'its very'
p1178
I49
sS'front of'
p1179
I572
sS'pull-right" style="box-sizing:'
p1180
I581
sS'background-attachment: initial;'
p1181
I736
sS'100%; height:'
p1182
I1524
sS'toned body'
p1183
I176
sS'Gear up'
p1184
I101
sS'in month'
p1185
I6
sS'line-height: 16.7999992370605px;">When'
p1186
I36
sS'only make'
p1187
I38
sS'self?</div><div><br></div><div>Why delay?'
p1188
I9
sS'to hit'
p1189
I1111
sS'said that'
p1190
I439
sS'syncing it!</div><div><br></div>'
p1191
I1
sS'font-size: 13.3333339691162px;">*whole'
p1192
I1
sS'in the'
p1193
I10029
sS'wheat grilled'
p1194
I3
sS'us to'
p1195
I1808
sS'with your'
p1196
I4335
sS'Satish,<span style="color:'
p1197
I3
sS'1)DO YOUR'
p1198
I38
sS'Member of'
p1199
I76
sS'the action-packed'
p1200
I123
sS'because Dancing'
p1201
I12
sS'lifestyle. I'
p1202
I51
sS'line-height: 16.7999992370605px;"><span'
p1203
I1410
sS"and you'll"
p1204
I31
sS'levels at'
p1205
I8
sS'r in'
p1206
I6656
sS'cereal boxes)<br'
p1207
I50
sS'be great'
p1208
I804
sS'doesn\x83??t challenge'
p1209
I33
sS'Coach r'
p1210
I3
sS'encourage them'
p1211
I76
sS'<div><span style="color:'
p1212
I53
sS'soy nuts</span><br'
p1213
I1
sS'besan ChillaBoiled'
p1214
I1
sS'1 !important;'
p1215
I466
sS'Your body'
p1216
I235
sS'breads, cereals,'
p1217
I181
sS'in muscle'
p1218
I53
sS'nutrition is'
p1219
I61
sS'a positive'
p1220
I471
sS'veggie salads.&nbsp;<img'
p1221
I1
sS'finding it'
p1222
I189
sS'and returned'
p1223
I121
sS'should I'
p1224
I307
sS';)'
p1225
I1380
sS'goal. I'
p1226
I81
sS'width: 1.2em'
p1227
I157
sS'!important;" title="Grinning'
p1228
I68
sS'let me'
p1229
I5599
sS'keep away'
p1230
I45
sS'multiplied 10'
p1231
I118
sS'check out'
p1232
I273
sS'new day.'
p1233
I3
sS'to learn,'
p1234
I172
sS'is getting'
p1235
I221
sS'cool breakfast...???\x9f&nbsp;<br>So'
p1236
I1
sS'Hi Mitali<br><br><br>'
p1237
I1
sS'action-packed week!!'
p1238
I105
sS'Player,You know'
p1239
I16
sS'our goals'
p1240
I2475
sS'you just'
p1241
I288
sS'<div><br></div><div>We are'
p1242
I48
sS'color: rgb(54,'
p1243
I317
sS'paneer pieces\r\n<div><br'
p1244
I1
sS'0.25em !important;'
p1245
I427
sS'16.7999992370605px;">&nbsp;sometimes inspiration'
p1246
I2
sS'liberally \r\nrelish'
p1247
I22
sS'Hi shimpley'
p1248
I1
sS'in results.</span><br'
p1249
I1
sS'you ask'
p1250
I55
sS'with the'
p1251
I5333
sS'water),\r\nfitness (steps'
p1252
I2
sS'1424530472" style="box-sizing:'
p1253
I1
sS'your family,'
p1254
I214
sS'<br>Well today'
p1255
I1
sS'93); font-family:'
p1256
I3323
sS'colourful veggie'
p1257
I292
sS'know what'
p1258
I1230
sS'my walks'
p1259
I22
sS'Mitali lets'
p1260
I1
sS'and packaged'
p1261
I38
sS'issues which'
p1262
I22
sS'is meeting'
p1263
I9
sS'this link'
p1264
I679
sS'it started..Our'
p1265
I1
sS'application.</span><br style="box-sizing:'
p1266
I3
sS'to relax..'
p1267
I23
sS'and Power!'
p1268
I167
sS'how slow'
p1269
I21
sS'a LONG'
p1270
I163
sS'/><br /><span'
p1271
I704
sS'important macronutrient-&nbsp;</span><strong'
p1272
I6
sS'me a'
p1273
I6749
sS'goal is'
p1274
I196
sS'the target'
p1275
I941
sS'be more'
p1276
I850
sS'like you'
p1277
I1113
sS'impostors. Choose'
p1278
I51
sS'you been?&nbsp;</span><font'
p1279
I5
sS'I replied'
p1280
I5
sS'D-A-N-C-E! In'
p1281
I12
sS'about you'
p1282
I3979
sS'really like'
p1283
I287
sS'If it'
p1284
I215
sS'chutney or'
p1285
I9
sS'font-size: 13.3333339691162px;">I'
p1286
I4
sS'our walks'
p1287
I63
sS'CONSUMER LAUNCH!!'
p1288
I76
sS'our plate'
p1289
I384
sS'!important; float:'
p1290
I467
sS'sans-serif;">would like'
p1291
I1
sS'Nutrition Facts'
p1292
I180
sS'Energy and'
p1293
I227
sS'<img src="http://goqii-app.s3.amazonaws.com/emoticons/smiley-music.gif"'
p1294
I7
sS'times you'
p1295
I77
sS'height: 1.2em'
p1296
I157
sS'your intake'
p1297
I78
sS'band with'
p1298
I906
sS'not facing'
p1299
I69
sS'class="chromoji" style="box-sizing:'
p1300
I455
sS'with whom'
p1301
I25
sS'Roboto, sans-serif;">if'
p1302
I1
sS'you. You'
p1303
I176
sS'13.3333339691162px;">*boiled corn'
p1304
I1
sS'Your bones,'
p1305
I57
sS'Quantity of'
p1306
I27
sS'days\r\nincluding your'
p1307
I1
sS'WORKOUTS in'
p1308
I56
sS'and friends,'
p1309
I186
sS'padding: 0px;">If'
p1310
I24
sS'up over'
p1311
I15
sS'shopping!</span><div class="row'
p1312
I1
sS'????<br data-mce-bogus="1">'
p1313
I87
sS'is made'
p1314
I273
sS'power music'
p1315
I8
sS'work together'
p1316
I210
sS'friends, a'
p1317
I78
sS'lots of'
p1318
I775
sS'explains that'
p1319
I24
sS'should be'
p1320
I1719
sS'with you'
p1321
I8852
sS'Mitali<br>I am'
p1322
I1
sS'external invaders'
p1323
I63
sS'the package.'
p1324
I147
sS'by playing'
p1325
I112
sS'and Stretch...'
p1326
I22
sS'color: rgb(93,'
p1327
I3730
sS'to have'
p1328
I3753
sS'Hey Player...'
p1329
I38
sS'lets try&nbsp;'
p1330
I1
sS'Mitali<br>Are you'
p1331
I1
sS'from updating'
p1332
I22
sS'make sure'
p1333
I1962
sS'target steps'
p1334
I23
sS'you today'
p1335
I724
sS'GOQii goes'
p1336
I76
sS'towards a'
p1337
I546
sS'Lazyness :('
p1338
I1
sS'up with'
p1339
I1903
sS'our GOAL..'
p1340
I74
sS'As always'
p1341
I5
sS'ability to'
p1342
I64
sS'do that'
p1343
I692
sS'Hey Mitali...'
p1344
I2
sS'peanut butter</span></div>\r\n<div><span'
p1345
I2
sS'stared going'
p1346
I1
sS'Roman&quot;;mso-bidi-font-family:Arial;\r\ncolor:#222222">To know'
p1347
I1
sS'target="_blank"><span style="font-family:&quot;Verdana&quot;,&quot;sans-serif&quot;;\r\nmso-fareast-font-family:&quot;Times'
p1348
I1
sS'forward to'
p1349
I2032
sS'workouts is'
p1350
I71
sS'have more'
p1351
I527
sS'your favorite'
p1352
I246
sS'some time'
p1353
I964
sS'go,you are'
p1354
I20
sS'pick some'
p1355
I42
sS'activity Satish!<br'
p1356
I1
sS'with all'
p1357
I407
sS'--'
p1358
I1485
sS'<p>Dips</p>\r\n<p>We missed'
p1359
I1
sS'EXCEL in'
p1360
I11
sS'over the'
p1361
I1801
sS'66); font-family:'
p1362
I281
sS'Tip:\x83?\x9b\tDon\x83??t worry'
p1363
I19
sS'Find some'
p1364
I22
sS'alt="" />'
p1365
I21845
sS'to say'
p1366
I624
sS'these 5'
p1367
I194
sS'Get Going!!!'
p1368
I167
sS'user login?'
p1369
I1
sS'to check'
p1370
I332
sS'most important'
p1371
I549
sS'style="color: rgb(93,'
p1372
I1719
sS'daily routine'
p1373
I720
sS'color: #5d5d5d;'
p1374
I3413
sS'that are'
p1375
I172
sS'weekend going?</span><br'
p1376
I3
sS'8px; padding:'
p1377
I351
sS'you gave'
p1378
I35
sS'We could'
p1379
I235
sS'Missed meeting'
p1380
I1
sS'yesterday. What'
p1381
I39
sS'say about'
p1382
I37
sS'yogurt with'
p1383
I135
sS'class="row date-box"'
p1384
I535
sS'time and'
p1385
I1505
sS'GOQii Presentation,'
p1386
I322
sS'bones, 10'
p1387
I57
sS'New Roman&quot;;\r\nmso-bidi-font-family:Arial;color:#222222">Once'
p1388
I1
sS'can liberally'
p1389
I41
sS'we Gear'
p1390
I22
sS'label.<br style="box-sizing:'
p1391
I13
sS'take you'
p1392
I908
sS'mata di'
p1393
I3
sS"Today's Health"
p1394
I144
sS'your data..'
p1395
I364
sS'Tip:How important'
p1396
I15
sS'WEEK AHEAD'
p1397
I56
sS'which helps'
p1398
I143
sS'Run, dance'
p1399
I40
sS'New Roman&quot;;mso-bidi-font-family:Arial;\r\ncolor:#222222"><o:p></o:p></span></p>\r\n\r\n<p'
p1400
I1
sS'veggie sandwich</span></div>\r\n<div><span'
p1401
I2
sS'markets and'
p1402
I32
sS'the market'
p1403
I119
sS'/><br /><br'
p1404
I7067
sS'soy nuts</span></div>\r\n<div><span'
p1405
I2
sS'line-height: 16.7999992370605px;">Hope'
p1406
I68
sS'body stores'
p1407
I49
sS'peanut butter</span><br'
p1408
I1
sS'know Player...'
p1409
I48
sS'your Karma'
p1410
I40
sS'life, please'
p1411
I2
sS'HAVE A'
p1412
I61
sS'grain impostors.'
p1413
I51
sS'colorful fruits'
p1414
I74
sS'excel in'
p1415
I49
sS'GPRS rule'
p1416
I475
sS'of time'
p1417
I413
sS'with me'
p1418
I2200
sS'So keep'
p1419
I162
sS'You know'
p1420
I297
sS'some mindful'
p1421
I2
sS'line-height: 16.7999992370605px;"><br></span></font></div>'
p1422
I13
sS'ON THE'
p1423
I39
sS'12px; line-height:'
p1424
I348
sS'SUNDAY be'
p1425
I38
sS'what buddy,'
p1426
I100
sS'ingredient list.'
p1427
I186
sS'salad with'
p1428
I94
sS'those pieces!!'
p1429
I44
sS'choice, for'
p1430
I37
sS'back by'
p1431
I31
sS'16.7999992370605px;"><span style="box-sizing:'
p1432
I677
sS'16.7999992370605px;"><span class="emoji'
p1433
I19
sS'WILLPOWER! It'
p1434
I44
sS'journey? Don,t'
p1435
I1
sS'makes these'
p1436
I63
sS'lapping everybody'
p1437
I20
sS"example: children's"
p1438
I180
sS'0px;"><br style="box-sizing:'
p1439
I727
sS'outline-style: none'
p1440
I466
sS'(almonds, walnuts)&nbsp;Roasted'
p1441
I1
sS'but you'
p1442
I456
sS'step towards'
p1443
I112
sS'preventing you'
p1444
I52
sS'you!&nbsp;<img class="imageViewerInLarge"'
p1445
I4
sS'at GOQii.'
p1446
I124
sS'hybernate.&nbsp;<img src="http://goqii-app.s3.amazonaws.com/emoticons/smiley-laughing.gif"'
p1447
I1
sS'are chatting'
p1448
I2
sS'the week'
p1449
I4059
sS'ingredient on'
p1450
I187
sS'But how'
p1451
I49
sS'started with'
p1452
I841
sS'and shift'
p1453
I74
sS'colours!</div>\r\n<div style="box-sizing:'
p1454
I9
sS'and just'
p1455
I359
sS'sync wt'
p1456
I1
sS'of curd'
p1457
I136
sS'about targeting'
p1458
I3
sS'for you-</span><br'
p1459
I1
sS'the band'
p1460
I3481
sS'Gym.&nbsp;<br /><br'
p1461
I1
sS'week Kishor.<img'
p1462
I1
sS'the gear'
p1463
I171
sS'Player! Rather'
p1464
I38
sS'on bad'
p1465
I174
sS'a correct'
p1466
I58
sS'see you'
p1467
I6784
sS'Queen. Put'
p1468
I20
sS'that you'
p1469
I7160
sS'href="http://bit.ly/1EAMpVQ" target="_blank"><span'
p1470
I15
sS'analyze it..'
p1471
I22
sS'the physical'
p1472
I126
sS'stores away'
p1473
I46
sS'options for'
p1474
I149
sS'partying keep'
p1475
I100
sS'installed in'
p1476
I12
sS'a'
p1477
I173615
sS'Hey Mitali'
p1478
I48
sS'Choose breads,'
p1479
I180
sS'in action!<br'
p1480
I6
sS'chaat</span></div>\r\n<div><span style="color:'
p1481
I2
sS'got to'
p1482
I663
sS'https://soundcloud.com/goqii/betheforce-goqii that'
p1483
I84
sS'to rev'
p1484
I78
sS'kingdom of'
p1485
I60
sS'nutrition label'
p1486
I58
sS'What'
p1487
I9183
sS'been?&nbsp;</span><font color="#5d5d5d"'
p1488
I5
sS'Worked well'
p1489
I1
sS'syrup on'
p1490
I186
sS'Today no'
p1491
I11
sS'enthusiasm from'
p1492
I14
sS'r u'
p1493
I4336
sS'every minute'
p1494
I162
sS'LAUNCH!! Thanks'
p1495
I59
sS"Player,Today's Health"
p1496
I60
sS'poli and'
p1497
I30
sS'and you'
p1498
I3548
sS'good to'
p1499
I1067
sS'data-mce-src="http://goqii-app.s3.amazonaws.com/user/user/s_1424510585.jpg" style="box-sizing:'
p1500
I1
sS'too!'
p1501
I621
sS'4)DONT'
p1502
I38
sS'So when'
p1503
I179
sS'GOQii Life'
p1504
I863
sS'is do&nbsp;'
p1505
I1
sS'fruits and'
p1506
I784
sS'role in'
p1507
I111
sS'6)Do'
p1508
I38
sS'and nuts'
p1509
I179
sS'a few'
p1510
I1223
sS'just got'
p1511
I260
sS'formal coaching'
p1512
I54
sS'avoid tiredness:)'
p1513
I1
sS'are introducing'
p1514
I5
sS'for healthier'
p1515
I192
sS'GO HUNGRY'
p1516
I56
sS'be aware'
p1517
I243
sS'super markets'
p1518
I32
sS'21.6000003814697px;">How\'s your'
p1519
I3
sS'try in'
p1520
I87
sS'sure help'
p1521
I10
sS'perfect, just'
p1522
I25
sS'to you'
p1523
I7420
sS'data you'
p1524
I47
sS'hit those'
p1525
I50
sS'for today?'
p1526
I594
sS'smooth. Let'
p1527
I1
sS'to your'
p1528
I3839
sS'the BIGGEST!'
p1529
I163
sS'start the'
p1530
I1150
sS'font-size: 14px;'
p1531
I4388
sS'set up'
p1532
I425
sS'Hey Shimpli.'
p1533
I8
sS'(pollutants and'
p1534
I61
sS'class="MsoNormal" style="margin-bottom:'
p1535
I109
sS'grilled veggie'
p1536
I5
sS'your body.&nbsp;</div><div'
p1537
I12
sS'line-height: 1.2;'
p1538
I734
sS'padding: 0px;">2.'
p1539
I16
sS'16.7999992370605px;"><span style="color:'
p1540
I747
sS'12pt 0in'
p1541
I1
sS'up baby.</p>\r\n<p>On'
p1542
I1
sS'colourful foods!'
p1543
I24
sS'Karma point'
p1544
I638
sS'you feel'
p1545
I1935
sS'congratulate\r\nyou for'
p1546
I1
sS'Bread and'
p1547
I2
sS'for you-'
p1548
I51
sS'to you?'
p1549
I184
sS'the protein'
p1550
I287
sS'familiarized by'
p1551
I7
sS'cues and'
p1552
I37
sS'crushed nuts</span></div>\r\n<div><span'
p1553
I2
sS'to you.'
p1554
I1011
sS"sure it's"
p1555
I91
sS'i.e. your'
p1556
I264
sS'these new'
p1557
I66
sS'Grab some'
p1558
I77
sS'appealing but'
p1559
I24
sS'correct choice'
p1560
I39
sS'morning before'
p1561
I82
sS'must be'
p1562
I789
sS'fact, Everybody'
p1563
I12
sS'day or'
p1564
I669
sS'your nutrition'
p1565
I462
sS'reply.Let that'
p1566
I1
sS'see you!'
p1567
I25
sS'through user'
p1568
I1
sS'other benefits'
p1569
I45
sS'when you'
p1570
I2252
sS'forget to'
p1571
I840
sS'u r'
p1572
I2680
sS'from tomorrow!'
p1573
I25
sS"ways you'd"
p1574
I109
sS'optical fiber'
p1575
I1
sS'LONG INGREDIENT'
p1576
I180
sS'Let us'
p1577
I993
sS'refreshed! The'
p1578
I29
sS'accountable and'
p1579
I1
sS'<p>Hi coach</p>'
p1580
I2
sS'you start'
p1581
I1993
sS'Gupta, A'
p1582
I50
sS'more suspicious'
p1583
I186
sS'to get'
p1584
I4359
sS'about you?'
p1585
I383
sS'Look for'
p1586
I250
sS'sans-serif"><span style="font-size:'
p1587
I46
sS'now make'
p1588
I79
sS'width: 300px;'
p1589
I472
sS'call to'
p1590
I1958
sS'please share'
p1591
I193
sS'then we'
p1592
I373
sS'Currently. I'
p1593
I1
sS'and refreshed!'
p1594
I29
sS'see your'
p1595
I3898
sS'part'
p1596
I4901
sS'be better'
p1597
I248
sS'Tips for'
p1598
I50
sS'are you'
p1599
I13237
sS'foods with'
p1600
I205
sS'to play'
p1601
I169
sS'src="http://goqii-app.s3.amazonaws.com/user/images/s_1398265226.jpg" alt=""'
p1602
I1
sS'as we'
p1603
I4604
sS'class="row text"'
p1604
I1419
sS'to take'
p1605
I2370
sS'about your'
p1606
I3348
sS'13.3333339691162px;">*at times'
p1607
I1
sS'you on'
p1608
I2778
sS'getting an'
p1609
I147
sS'keep GPRS'
p1610
I102
sS'circuit today.&nbsp;'
p1611
I1
sS'for the'
p1612
I9446
sS'few evening'
p1613
I3
sS'wheat Bread'
p1614
I3
sS'Roboto, sans-serif;">would'
p1615
I1
sS"breakfast...???\x9f&nbsp;<br>So what's"
p1616
I1
sS'style="font-size: 14px;'
p1617
I43
sS'and indulge'
p1618
I98
sS'together to'
p1619
I204
sS'goals, and'
p1620
I8
sS'head out'
p1621
I204
sS'and we'
p1622
I1991
sS'foods! Colours,'
p1623
I24
sS'the app.&nbsp;&nbsp;Let'
p1624
I2
sS'choose the'
p1625
I54
sS'Roman&quot;;mso-bidi-font-family:Arial;\r\ncolor:#222222">&nbsp;</span></p>\r\n\r\n<p class="MsoNormal"'
p1626
I1
sS'player app'
p1627
I1
sS'activity plan'
p1628
I158
sS'Roman&quot;;mso-bidi-font-family:Arial;\r\ncolor:#222222">&nbsp;<o:p></o:p></span></p>\r\n\r\n<p class="MsoNormal"'
p1629
I1
sS'by Wednesday'
p1630
I4
sS'a new'
p1631
I1463
sS'lets be'
p1632
I119
sS'your body'
p1633
I3626
sS'with chopped'
p1634
I33
sS'fun, it'
p1635
I12
sS'letters on'
p1636
I186
sS'Chanas/Chickpeas/Soya nutsMoong'
p1637
I1
sS'whole grain'
p1638
I420
sS'do for'
p1639
I84
sS'54); font-size:'
p1640
I53
sS'oil and'
p1641
I356
sS'background-repeat: initial;"><span'
p1642
I217
sS'the the'
p1643
I280
sS'src="http://goqii-app.s3.amazonaws.com/emoticons/smiley-smile.gif" alt=""'
p1644
I12403
sS'New Roman&quot;;mso-bidi-font-family:Arial;\r\ncolor:#222222">Refer'
p1645
I1
sS'first step'
p1646
I382
sS"buddy.. Let's"
p1647
I16
sS'can now'
p1648
I99
sS'sunflower seedsCorn'
p1649
I1
sS'you could'
p1650
I644
sS'see results'
p1651
I151
sS', taking'
p1652
I113
sS'on this'
p1653
I1417
sS'concept and'
p1654
I202
sS'replied positive.So'
p1655
I1
sS'Sounds good'
p1656
I208
sS'hi<img src="http://goqii-app.s3.amazonaws.com/emoticons/smiley-kiss.gif"'
p1657
I1
sS'shall aim'
p1658
I76
sS'Cool can'
p1659
I1
sS'we try'
p1660
I136
sS'and colourful'
p1661
I27
sS'Roman&quot;;\r\nmso-bidi-font-family:Arial;color:#1155CC">http://bit.ly/1EAMpVQ</span></a><span style="font-family:&quot;Verdana&quot;,&quot;sans-serif&quot;;mso-fareast-font-family:&quot;Times'
p1662
I1
sS'ones! Have'
p1663
I22
sS'initial; background-origin:'
p1664
I736
sS'resulting in'
p1665
I58
sS'exercise should'
p1666
I7
sS'packaging, the'
p1667
I186
sS'you at'
p1668
I776
sS'ask me'
p1669
I98
sS'Right Foods..which'
p1670
I22
sS'0px;" /><br'
p1671
I691
sS'buddy! Keep'
p1672
I23
sS'your support'
p1673
I147
sS'to protect'
p1674
I90
sS'!important; background-color:'
p1675
I1197
sS'ordering out'
p1676
I38
sS'Willpower is'
p1677
I44
sS'proportional to'
p1678
I102
sS'the next'
p1679
I1743
sS'about\r\nyour lifestyle'
p1680
I1
sS'for connecting!Glad'
p1681
I1
sS'line-height: 16.7999992370605px;">https://goqii.com/blog/phytochemicals-why-is-it-important-to-go-colourful/</div>'
p1682
I9
sS'positive.So if'
p1683
I1
sS'Satish. Welcome'
p1684
I1
sS"Morning Player,Today's"
p1685
I44
sS'foods, then'
p1686
I38
sS'an introductory'
p1687
I456
sS'it going'
p1688
I1357
sS'we resume?&nbsp;</span>'
p1689
I5
sS'discuss\r\nthis on'
p1690
I1
sS'!important;"></span></span></font><div class="row'
p1691
I6
sS'is the'
p1692
I5974
sS'16.7999992370605px;">how\'s it'
p1693
I4
sS'do let'
p1694
I425
sS'results.</span><br style="box-sizing:'
p1695
I10
sS'comes the'
p1696
I320
sS'something active-GET'
p1697
I38
sS'that would'
p1698
I450
sS'family and'
p1699
I490
sS'got it&nbsp;'
p1700
I4
sS'four pieces'
p1701
I44
sS'soon.&nbsp;</span><div class="row'
p1702
I1
sS"we aren't"
p1703
I71
sS'more attractive'
p1704
I189
sS'18px; line-height:'
p1705
I2295
sS'know, I'
p1706
I166
sS'66, 66);'
p1707
I282
sS'Kishor,<br /><br'
p1708
I12
sS'you eat...the'
p1709
I57
sS'16.7999992370605px;"><br style="box-sizing:'
p1710
I1818
sS'initial;"><span style="font-family:&quot;Verdana&quot;,&quot;sans-serif&quot;;\r\nmso-fareast-font-family:&quot;Times'
p1711
I1
sS'shining my'
p1712
I2
sS'the Quantity'
p1713
I25
sS'You are'
p1714
I1002
sS'co-operation through'
p1715
I76
sS'Coach what'
p1716
I2
sS'have idli/dosa'
p1717
I5
sS'HUNGRY to'
p1718
I56
sS'even more'
p1719
I135
sS'Ohhh...:( <br>Well'
p1720
I1
sS'then hold'
p1721
I39
sS'that contain'
p1722
I249
sS'padding: 0px;">3.'
p1723
I16
sS'the organic'
p1724
I42
sS'Gym :('
p1725
I1
sS'to you?</span></div>'
p1726
I2
sS'cells.. and'
p1727
I29
sS'Hi player'
p1728
I11
sS'your routine'
p1729
I832
sS'to be'
p1730
I6786
sS'Can I'
p1731
I257
sS'!important; visibility:'
p1732
I466
sS'eat.(Grilled, Poached,'
p1733
I66
sS'or besan'
p1734
I4
sS'we constantly'
p1735
I93
sS'them to'
p1736
I950
sS'to help'
p1737
I1516
sS"/><br />Let's"
p1738
I801
sS'some amazing'
p1739
I46
sS'the Nutrition'
p1740
I173
sS'1.2; color:'
p1741
I3
sS'using the'
p1742
I403
sS"you'll know"
p1743
I25
sS'crackers &amp;'
p1744
I180
sS'liver, 5'
p1745
I57
sS'value to'
p1746
I70
sS'Colours, which'
p1747
I24
sS'Grilled SandwichRoasted'
p1748
I1
sS'away!!&nbsp;</span><br style="box-sizing:'
p1749
I1
sS'<div class="row'
p1750
I1472
sS'is directly'
p1751
I77
sS'Hi<br /><br'
p1752
I31
sS'or with'
p1753
I47
sS'wt app'
p1754
I1
sS"Hi Mitali<br>How's"
p1755
I1
sS'in a'
p1756
I7859
sS'/ Corn'
p1757
I3
sS'to which'
p1758
I143
sS'try to'
p1759
I3770
sS'and additional'
p1760
I302
sS'we are,'
p1761
I10
sS'HEY<br data-mce-bogus="1">'
p1762
I1
sS'sans-serif;">*boiled black'
p1763
I2
sS'achieving this'
p1764
I31
sS'us at'
p1765
I49
sS'be happy'
p1766
I147
sS'to work'
p1767
I1808
sS'fruits???\x9f&nbsp; today'
p1768
I1
sS'Roboto, sans-serif;">*at'
p1769
I2
sS'crushed nuts</span><br'
p1770
I3
sS'enough SLEEP'
p1771
I56
sS'Sprout chat'
p1772
I3
sS'if your'
p1773
I486
sS'supply of'
p1774
I31
sS'text-align: center;'
p1775
I503
sS'wrong ones!'
p1776
I22
sS'the food.<br'
p1777
I29
sS'the least,'
p1778
I188
sS'board.<o:p></o:p></span></p>\r\n\r\n<p class="MsoNormal"'
p1779
I1
sS'max-height: 64px'
p1780
I466
sS'LIST!</div><div style="box-sizing:'
p1781
I4
sS'am extremely'
p1782
I111
sS'alone or'
p1783
I2
sS'WELL while'
p1784
I56
sS'0px none;'
p1785
I451
sS'about it,'
p1786
I19
sS'line-height: 16.7999992370605px;">Can'
p1787
I67
sS'salads.&nbsp;<img class="chromoji"'
p1788
I1
sS'to lead'
p1789
I217
sS'breakfast its'
p1790
I1
sS'Face" src="chrome-extension://cahedbegdkagmcjfolhdlechbkeaieki/images/apple/1f600.png"'
p1791
I61
sS'difficult to'
p1792
I435
sS'Plzzzz share'
p1793
I1
sS'and water'
p1794
I1506
sS'a weekend..'
p1795
I29
sS'snacking options'
p1796
I51
sS'your health'
p1797
I3068
sS'next steps.<o:p></o:p></span></p>\r\n\r\n<p'
p1798
I1
sS'or some'
p1799
I1006
sS'Hi Buddy!'
p1800
I44
sS'bay.</div><div style="box-sizing:'
p1801
I7
sS'gave me'
p1802
I208
sS'are facing'
p1803
I1074
sS'happen! Am'
p1804
I90
sS"Player...What's up"
p1805
I12
sS'16.7999992370605px;">I want'
p1806
I50
sS'Got it'
p1807
I76
sS'relative !important;'
p1808
I466
sS'with friends'
p1809
I445
sS'part of'
p1810
I1521
sS'time favourite'
p1811
I13
sS'line-height: 16.7999992370605px;">PROTEIN.</strong><div'
p1812
I7
sS'initial; background-attachment:'
p1813
I736
sS'plan&nbsp; to'
p1814
I33
sS'izz. so'
p1815
I64
sS'based puran'
p1816
I52
sS'It would'
p1817
I851
sS'share it'
p1818
I160
sS'introducing special'
p1819
I5
sS'Coach<i>.</i>&nbsp;First of'
p1820
I1
sS'you go,you'
p1821
I20
sS'your skin'
p1822
I103
sS'hi, thanks'
p1823
I5
sS'my best'
p1824
I141
sS'those nasty'
p1825
I25
sS'as well,'
p1826
I294
sS'0px;">2. The'
p1827
I2
sS'weekend is'
p1828
I680
sS'with a'
p1829
I4669
sS'/><br />'
p1830
I33253
sS'a great'
p1831
I3611
sS'more active'
p1832
I676
sS'seeing others'
p1833
I66
sS'us have'
p1834
I176
sS'line-height: 16.7999992370605px;">If'
p1835
I96
sS'lead a'
p1836
I226
sS'14px; color:'
p1837
I469
sS'activity) and'
p1838
I224
sS'margin: 0em'
p1839
I466
sS'Family! Moreover,'
p1840
I48
sS'offered to'
p1841
I46
sS'8000 steps..What'
p1842
I1
sS'be perfect,'
p1843
I91
sS'steps for'
p1844
I191
sS'just because'
p1845
I35
sS'you?</span></div>\r\n<span style="color:'
p1846
I1
sS'should Dance!!'
p1847
I12
sS'decode the'
p1848
I37
sS'background-image: initial;'
p1849
I740
sS'begins the'
p1850
I106
sS'the Action?'
p1851
I22
sS'and date'
p1852
I635
sS'you plan&nbsp;'
p1853
I33
sS'great you'
p1854
I25
sS'jai mata'
p1855
I1
sS'the label.</div><div'
p1856
I21
sS'time to'
p1857
I3441
sS'updates,still waiting'
p1858
I1
sS'drink and'
p1859
I122
sS"Heyo,Today's Health"
p1860
I15
sS'are preventing'
p1861
I6
sS'#betheforce'
p1862
I1998
sS'next few'
p1863
I158
sS'am Tejal\r\nGupte,'
p1864
I1
sS'you stay'
p1865
I176
sS'0px;">Make a'
p1866
I1
sS'for a'
p1867
I7553
sS'class="pull-right timestampchecker'
p1868
I24
sS"Hey,&nbsp;<br><br>I'm back."
p1869
I1
sS'Play a'
p1870
I5
sS'healthy way'
p1871
I111
sS'14px; font-family:'
p1872
I20
sS'you ?'
p1873
I907
sS'more data'
p1874
I124
sS'fistful of'
p1875
I21
sS'you share'
p1876
I241
sS'class="imageViewerInLarge" src="http://goqii-app.s3.amazonaws.com/user/user/s_1424510585.jpg"'
p1877
I2
sS'0px; font-size:'
p1878
I875
sS'halt in'
p1879
I95
sS'should. Your'
p1880
I46
sS'6)Do something'
p1881
I38
sS'.How are'
p1882
I105
sS"week!! Let's"
p1883
I105
sS'src="chrome-extension://cahedbegdkagmcjfolhdlechbkeaieki/images/apple/1f600.png" alt="????"'
p1884
I61
sS'the Quality'
p1885
I24
sS"Here's"
p1886
I462
sS'the day.'
p1887
I990
sS'crap!<br style="box-sizing:'
p1888
I1
sS'a Healthy'
p1889
I80
sS'current workout'
p1890
I19
sS'0px; border:'
p1891
I1564
sS'As mentioned'
p1892
I55
sS'later date.'
p1893
I114
sS'your GOQii'
p1894
I1419
sS'to this'
p1895
I877
sS'<p class="MsoNormal"'
p1896
I497
sS'of water'
p1897
I3044
sS'!important; top:'
p1898
I466
sS'any band/app'
p1899
I29
sS'rgb(54, 54,'
p1900
I317
sS"day!! Let's"
p1901
I57
sS'the fat'
p1902
I286
sS'2)SPLURGE in'
p1903
I38
sS'There has'
p1904
I8
sS'would help'
p1905
I743
sS'for some'
p1906
I756
sS'body thinks'
p1907
I46
sS'emphasizing on'
p1908
I25
sS'our next'
p1909
I348
sS'chickpeas or'
p1910
I3
sS'ones\r\n to'
p1911
I1
sS'0px 0px'
p1912
I867
sS'font-size: 13.3333339691162px;">*boiled'
p1913
I1
sS'food when'
p1914
I39
sS'Hey buddy...'
p1915
I77
sS'The better'
p1916
I24
sS'line-height: 20px;"><div'
p1917
I299
sS'line-height: 16.7999992370605px;"><br'
p1918
I1880
sS'BIGGEST! ('
p1919
I163
sS'today? I'
p1920
I169
sS'would be'
p1921
I3810
sS'!important; border:'
p1922
I299
sS'demand of'
p1923
I7
sS'black chanas'
p1924
I4
sS'style="color: #5d5d5d;'
p1925
I1578
sS'healthier cells'
p1926
I61
sS'video:&nbsp;</span><a href="http://bit.ly/1smgaiI"'
p1927
I2
sS"I'm sure"
p1928
I131
sS'corn syrup'
p1929
I234
sS'walks with'
p1930
I23
sS'years. Your'
p1931
I57
sS'5 simple'
p1932
I187
sS'tremendous value'
p1933
I24
sS'!important; -webkit-perspective:'
p1934
I466
sS'in more'
p1935
I196
sS'any obstacles'
p1936
I43
sS'of whole'
p1937
I272
sS'2 fruits'
p1938
I185
sS'someone else.<br>???\x9f&nbsp;'
p1939
I1
sS'meeting the'
p1940
I239
sS'background-image: url(http://coach.goqii.com/webApp/css-img/emoji.png?v=0.2.2)'
p1941
I1385
sS'line-height: 16.7999992370605px;">Do'
p1942
I163
sS'also help'
p1943
I355
sS'loved ones,'
p1944
I72
sS'will try:)</p>\r\n<p>&nbsp;</p>'
p1945
I1
sS'is an'
p1946
I1577
sS'us move'
p1947
I3
sS'toxic agents)..'
p1948
I29
sS'eat...the amount'
p1949
I57
sS'float: none'
p1950
I469
sS'take a'
p1951
I2304
sS'7)Get'
p1952
I38
sS'already reached'
p1953
I20
sS'can save'
p1954
I184
sS'through the'
p1955
I1595
sS'app calling'
p1956
I2
sS'your loved'
p1957
I473
sS'I do'
p1958
I1795
sS'is Queen.'
p1959
I20
sS'Health Tip:You'
p1960
I37
sS'Roman&quot;;mso-bidi-font-family:Arial;\r\ncolor:#222222"><o:p></o:p></span></p>\r\n\r\n<p class="MsoNormal"'
p1961
I1
sS'and make'
p1962
I1411
sS'from getting'
p1963
I18
sS'and the'
p1964
I4071
sS'I can'
p1965
I5219
sS'at 6000'
p1966
I3
sS'your half'
p1967
I4
sS'the formal'
p1968
I46
sS'SLEEP'
p1969
I65
sS'upload your'
p1970
I289
sS'feel re-energized'
p1971
I29
sS'alt="" data-mce-src="http://goqii-app.s3.amazonaws.com/user/user/s_1424510585.jpg"'
p1972
I2
sS'Me kuthe'
p1973
I1
sS'line-height: 21.6000003814697px;">How\'s'
p1974
I16
sS'pumpkin seeds'
p1975
I15
sS'can analyse'
p1976
I324
sS'6000 steps'
p1977
I88
sS'which explains'
p1978
I29
sS'preferably&nbsp; during'
p1979
I1
sS'am out'
p1980
I72
sS'fruits or'
p1981
I114
sS'the packaging,'
p1982
I183
sS'the workout.&nbsp;<br'
p1983
I18
sS'Keep me'
p1984
I300
sS'4)DONT GO'
p1985
I38
sS'raisins, black'
p1986
I2
sS'????&nbsp;<br data-mce-bogus="1"></div>'
p1987
I5
sS'right away!!&nbsp;</span><br'
p1988
I1
sS'games, dancing'
p1989
I19
sS'sambhar.<br /><br'
p1990
I1
sS'data.. Please'
p1991
I14
sS'skip meals,'
p1992
I49
sS'display: inline'
p1993
I612
sS'least 2'
p1994
I443
sS'a healthy'
p1995
I1709
sS'most suitable'
p1996
I196
sS'every 28'
p1997
I57
sS'immense pleasure'
p1998
I89
sS"Today's Tip:\x83?\x9b\tDon\x83??t"
p1999
I19
sS'support and'
p2000
I123
sS'data too&nbsp;'
p2001
I1
sS'New Roman&quot;;\r\nmso-bidi-font-family:Arial;color:#1155CC">http://bit.ly/1EAMpVQ</span></a><span'
p2002
I1
sS'u as'
p2003
I478
sS"Player! It's"
p2004
I22
sS'planned to'
p2005
I161
sS'class="MsoNormal" style="margin:'
p2006
I89
sS'you from'
p2007
I396
sS'you today-'
p2008
I18
sS'Hi Sabeeha'
p2009
I1
sS'0em !important;'
p2010
I466
sS'full with'
p2011
I24
sS'body.&nbsp;</div><div style="box-sizing:'
p2012
I7
sS'Gm Satish.'
p2013
I1
sS'salads everyday..'
p2014
I61
sS'but add'
p2015
I29
sS'exciting as'
p2016
I42
sS'font-size: 17.7777786254883px;'
p2017
I89
sS'15, 2014.'
p2018
I40
sS'love to'
p2019
I1823
sS'active-GET OUTSIDE'
p2020
I38
sS'why I'
p2021
I137
sS'dancing ,'
p2022
I91
sS'(steps counts'
p2023
I280
sS',<span style="color:'
p2024
I58
sS'buddy, every'
p2025
I99
sS'in mind'
p2026
I971
sS'slows down'
p2027
I64
sS"Here's a"
p2028
I76
sS'break a'
p2029
I97
sS'It is'
p2030
I1516
sS'<span style="color:'
p2031
I3898
sS'Have a'
p2032
I2931
sS'right? :)'
p2033
I88
sS'Buddy,Weekend Health'
p2034
I19
sS'mode.</span><br style="box-sizing:'
p2035
I9
sS'of all'
p2036
I595
sS'LOVELY WEEKEND'
p2037
I56
sS'Super cool'
p2038
I14
sS'consistently. #betheforce'
p2039
I35
sS'and will'
p2040
I1746
sS'and water),\r\nfitness'
p2041
I2
sS'the day..good'
p2042
I1
sS'sans-serif;">&nbsp;</span></div>\r\n<div><span style="color:'
p2043
I3
sS'made up'
p2044
I254
sS'going...!! :)'
p2045
I96
sS'fruits did'
p2046
I31
sS'rgb(85, 85,'
p2047
I119
sS'and Shine'
p2048
I24
sS'active, I'
p2049
I87
sS'target="_blank"><span style="font-family:&quot;Verdana&quot;,&quot;sans-serif&quot;;mso-fareast-font-family:&quot;Times'
p2050
I1
sS'Be the'
p2051
I101
sS'fat. :)'
p2052
I42
sS'Going!!! ;'
p2053
I60
sS'Matter how'
p2054
I20
sS'and see'
p2055
I662
sS'would love'
p2056
I1373
sS'Mitali,<br><br>How are'
p2057
I1
sS'are you?'
p2058
I4394
sS'the BIG'
p2059
I178
sS'about places,going'
p2060
I19
sS"Superr. I'm"
p2061
I1
sS'Beware of'
p2062
I191
sS'body makes'
p2063
I311
sS'minute you'
p2064
I92
sS'am missing'
p2065
I343
sS'amount of'
p2066
I1247
sS'burning calories'
p2067
I62
sS'you make'
p2068
I592
sS'moving Run,'
p2069
I26
sS'chatting through'
p2070
I3
sS'0px;">5. Fiber'
p2071
I2
sS'sans-serif;">*roasted makhanas</span></div>\r\n<div><span'
p2072
I2
sS'too. :)'
p2073
I83
sS'Welcome to'
p2074
I1015
sS'these days'
p2075
I555
sS'GOAL.. It'
p2076
I22
sS'baby.</p>\r\n<p>On Saturday,'
p2077
I1
sS'New Roman&quot;;mso-bidi-font-family:Arial;\r\ncolor:#222222">&nbsp;</span></p>\r\n\r\n<p'
p2078
I1
sS'sans-serif;">*roasted chickpeas'
p2079
I2
sS'push message??'
p2080
I1
sS"player.. Here's"
p2081
I20
sS'better through'
p2082
I117
sS'instant cues'
p2083
I37
sS'style="font-family:&quot;Verdana&quot;,&quot;sans-serif&quot;;\r\nmso-fareast-font-family:&quot;Times New'
p2084
I1
sS'skin irritation.'
p2085
I32
sS'up the'
p2086
I1487
sS'!important; padding:'
p2087
I467
sS'nutrition and'
p2088
I459
sS'cells and'
p2089
I124
sS'and not'
p2090
I744
sS'taking long'
p2091
I23
sS'Snacking optionsWhole'
p2092
I1
sS'10 times'
p2093
I171
sS'we spend'
p2094
I30
sS'better today'
p2095
I159
sS'&nbsp;Satish, I'
p2096
I1
sS'dont have'
p2097
I73
sS'or missing'
p2098
I19
sS'10 years.'
p2099
I57
sS'a health'
p2100
I2379
sS'purchasing the'
p2101
I43
sS'me. I'
p2102
I577
sS'journey, I\r\nas'
p2103
I1
sS'not see'
p2104
I421
sS'a target,'
p2105
I3
sS'background-color: transparent'
p2106
I363
sS'to share'
p2107
I2019
sS'interesting stuff'
p2108
I319
sS'is not'
p2109
I2477
sS'for portion'
p2110
I4
sS'curd with'
p2111
I39
sS'Moreover, you'
p2112
I98
sS'Hello, Good'
p2113
I100
sS'you pour'
p2114
I33
sS"We'll be"
p2115
I110
sS'ahead. As'
p2116
I42
sS'Roboto, sans-serif;">*roasted'
p2117
I2
sS'been great'
p2118
I75
sS'to avoid'
p2119
I650
sS'you....Exercise is'
p2120
I20
sS'Hello coach'
p2121
I50
sS'to rejuvenate'
p2122
I74
sS'regular with'
p2123
I193
sS'for us'
p2124
I1303
sS"Let's take"
p2125
I180
sS'sessions going??????\x9f&nbsp;'
p2126
I1
sS'laast update'
p2127
I1
sS'Thank you'
p2128
I1061
sS'chatWhole wheat'
p2129
I1
sS'you plan'
p2130
I1846
sS'your current'
p2131
I677
sS'Hi Mitali,<br><br>How'
p2132
I1
sS'!important; display:'
p2133
I569
sS'so that'
p2134
I5092
sS'drop in'
p2135
I57
sS'or dryfruit'
p2136
I23
sS'at bay.</div><div'
p2137
I7
sS'date is'
p2138
I91
sS'point Donation'
p2139
I3
sS'times and'
p2140
I153
sS'out for'
p2141
I1011
sS'agents).. How'
p2142
I29
sS'do some'
p2143
I1322
sS'we go'
p2144
I313
sS'fructose corn'
p2145
I229
sS'16.7999992370605px;">We need'
p2146
I15
sS'bars, crackers'
p2147
I186
sS'85, 85);'
p2148
I119
sS'line-height: 16.7999992370605px;">&nbsp;</div>\r\n<div'
p2149
I184
sS'plan to'
p2150
I686
sS'spend on'
p2151
I149
sS'line-height: 16.7999992370605px;">&nbsp;I'
p2152
I103
sS'Hi Kishor,<br'
p2153
I6
sS'it. Well,'
p2154
I9
sS'start working'
p2155
I461
sS'for taking'
p2156
I45
sS'make your'
p2157
I1101
sS'0px;"></div></div></div></div></div><div class="row'
p2158
I3
sS'src="http://goqii-app.s3.amazonaws.com/user/user/s_1426740460.jpg" alt=""'
p2159
I1
sS'week... but'
p2160
I101
sS'replaces itself.'
p2161
I63
sS'New Roman&quot;;mso-bidi-font-family:Arial;\r\ncolor:#222222">I'
p2162
I1
sS'I have'
p2163
I6730
sS'I will'
p2164
I5999
sS'16.7999992370605px;">How have'
p2165
I33
sS'line-height: 16.7999992370605px;">Hey'
p2166
I655
sS'0px;" />Why'
p2167
I7
sS', roaming'
p2168
I19
sS'you, it'
p2169
I92
sS'aiming to'
p2170
I143
sS'GOQii family'
p2171
I79
sS'day'
p2172
I54723
sS'to see'
p2173
I7020
sS'of sugar)</div><div'
p2174
I17
sS'date. :)'
p2175
I101
sS'attractive the'
p2176
I186
sS'connected over'
p2177
I143
sS'get well'
p2178
I36
sS'out our'
p2179
I741
sS'training, which'
p2180
I34
sS'16.7999992370605px;">&nbsp;I have'
p2181
I41
sS'line-height: 16.7999992370605px;">how\'s'
p2182
I5
sS'believe in'
p2183
I375
sS'To begin'
p2184
I29
sS'than we'
p2185
I103
sS'&amp; pasta'
p2186
I180
sS'tomorrow! #betheforce'
p2187
I6
sS'Phase. You'
p2188
I26
sS'you active'
p2189
I168
sS'fill you'
p2190
I260
sS'2014. So'
p2191
I41
sS'should is'
p2192
I1
sS'active by'
p2193
I490
sS'is affecting'
p2194
I108
sS'core is'
p2195
I122
sS'hold on!'
p2196
I37
sS'relax.. Try'
p2197
I22
sS'out'
p2198
I35304
sS'Hey Coach,<br'
p2199
I2
sS'band and'
p2200
I1044
sS'Mitali,&nbsp;<span style="line-height:'
p2201
I1
sS'the progress'
p2202
I63
sS'not burning'
p2203
I46
sS'can schedule'
p2204
I400
sS'look forward'
p2205
I437
sS'start of'
p2206
I756
sS'April,here comes'
p2207
I3
sS'after finishing'
p2208
I8
sS'health. :)'
p2209
I32
sS'invaders (pollutants'
p2210
I61
sS'text">While\r\n you'
p2211
I1
sS'calling at'
p2212
I5
sS'3)Eat like'
p2213
I38
sS'to a'
p2214
I8450
sS'a LAZY'
p2215
I56
sS'enjoy my'
p2216
I27
sS'font-family: arial,'
p2217
I798
sS'chaat</span><br style="box-sizing:'
p2218
I1
sS'you should'
p2219
I543
sS'/><br /></span>Do'
p2220
I2
sS'class="imageViewerInLarge" src="http://goqii-app.s3.amazonaws.com/user/user/s_1426669929.jpg"'
p2221
I1
sS'my steps'
p2222
I103
sS'get activated'
p2223
I5
sS'the force\x83??<o:p></o:p></span></p>\r\n\r\n<p'
p2224
I1
sS'GOQii concept'
p2225
I211
sS'we have'
p2226
I3223
sS'calories as'
p2227
I65
sS'line-height: 21.6000003814697px;">Relishing'
p2228
I3
sS'font-size: 13.3333339691162px;">*fruit'
p2229
I1
sS'bar up!&nbsp;???\x8d???\x9f'
p2230
I1
sS'muscle growth'
p2231
I26
sS'we visit'
p2232
I33
sS'is always'
p2233
I685
sS'step counts'
p2234
I2884
sS'me posted.'
p2235
I51
sS"Here's something"
p2236
I32
sS'with tomato'
p2237
I12
sS'your target.'
p2238
I179
sS'do ON'
p2239
I38
sS'and also'
p2240
I1094
sS'1; color:'
p2241
I546
sS'Hey Player!'
p2242
I32
sS'play with'
p2243
I97
sS'16.7999992370605px;">Hey &nbsp;Satish,'
p2244
I1
sS'21.6000003814697px;">Relishing your'
p2245
I3
sS'you hit'
p2246
I347
sS'that be'
p2247
I111
sS'and routine.'
p2248
I20
sS"if it's"
p2249
I83
sS'of your'
p2250
I4678
sS'visit the'
p2251
I96
sS"share what's"
p2252
I25
sS'which is'
p2253
I2176
sS'matter buddy?'
p2254
I2
sS'mostly of'
p2255
I181
sS'Your liver,'
p2256
I57
sS"<div>Hey Mitali...What's"
p2257
I1
sS'very smooth.'
p2258
I2
sS'at a'
p2259
I8726
sS'your targets'
p2260
I122
sS'have listed'
p2261
I7
sS'source of'
p2262
I443
sS'Will do'
p2263
I336
sS'food and'
p2264
I1502
sS"that it's"
p2265
I153
sS'What say?'
p2266
I948
sS'See my'
p2267
I4
sS'the reason'
p2268
I387
sS'extremely glad\r\nto'
p2269
I1
sS'300px; text-align:'
p2270
I472
sS'Roboto, sans-serif;"></div><div><font'
p2271
I6
sS'my colours!</div>\r\n<div'
p2272
I9
sS'more fat.'
p2273
I71
sS'20px;"><div class="msg-box'
p2274
I297
sS"days.. What's"
p2275
I1
sS'date. Are'
p2276
I12
sS'Roboto, sans-serif;"></div>'
p2277
I255
sS'to do?'
p2278
I73
sS'sweets offered'
p2279
I46
sS'getting sync'
p2280
I41
sS'the external'
p2281
I64
sS'a first'
p2282
I63
sS'Since your'
p2283
I75
sS'favourite activity!'
p2284
I12
sS'GOQii App,'
p2285
I265
sS'based on'
p2286
I181
sS'update in'
p2287
I32
sS'great engaging'
p2288
I42
sS'to our'
p2289
I1291
sS'Mitali<span style="color:'
p2290
I2
sS'the sweets'
p2291
I80
sS'Hi Mitali<br>Are'
p2292
I1
sS'rule in'
p2293
I111
sS'itself. Your'
p2294
I64
sS'opacity: 1'
p2295
I468
sS'padding: 0px;"></div></div></div></div></div><div'
p2296
I3
sS'having 2'
p2297
I40
sS'perfect, we'
p2298
I66
sS'our journey,'
p2299
I39
sS'got a'
p2300
I448
sS'mindful eating'
p2301
I269
sS'visibility: inherit'
p2302
I466
sS'syncing the'
p2303
I635
sS'you :)<br'
p2304
I56
sS'serving on'
p2305
I187
sS'get even'
p2306
I46
sS'physical activity'
p2307
I768
sS'16.7999992370605px;">If we'
p2308
I11
sS'Mitali<br>Good Morning.????&nbsp;'
p2309
I1
sS'the day'
p2310
I4719
sS'friend! Beware'
p2311
I180
sS'connect. &nbsp;</span><br'
p2312
I1
sS'bar into'
p2313
I44
sS'1.2;"><div class="row'
p2314
I34
sS'today? &nbsp;'
p2315
I17
sS'and swirl'
p2316
I40
sS'2 days?<br'
p2317
I4
sS'Buddy'
p2318
I457
sS'idli/dosa with'
p2319
I4
sS'next 2'
p2320
I188
sS'of fruits'
p2321
I347
sS'style="color: rgb(85,'
p2322
I43
sS'is your'
p2323
I2731
sS'Roboto, sans-serif;">weekend'
p2324
I1
sS'solution to'
p2325
I126
sS'it is'
p2326
I3669
sS'my vishalgondal@hotmail.com'
p2327
I1
sS'really glad'
p2328
I104
sS'to know'
p2329
I4224
sS'facing any'
p2330
I1022
sS'subscription gets'
p2331
I9
sS'!important; position:'
p2332
I466
sS'skin replaces'
p2333
I63
sS'0px;"></span><span style="box-sizing:'
p2334
I124
sS'which not'
p2335
I104
sS'from the'
p2336
I2365
sS'on board!!'
p2337
I240
sS'/></span>Do the'
p2338
I1
sS'1)DO'
p2339
I38
sS'resolved and'
p2340
I6
sS'/><br />I'
p2341
I5827
sS'in afternoon..what'
p2342
I1
sS'How about'
p2343
I2515
sS'Hey Satish'
p2344
I81
sS'Life! I'
p2345
I135
sS'an adequate'
p2346
I14
sS'u see'
p2347
I498
sS'after a'
p2348
I864
sS'/><br />Waiting'
p2349
I289
sS'0in 0.0001pt;'
p2350
I2
sS'16.7999992370605px;">I eat'
p2351
I9
sS'try today'
p2352
I51
sS'font-size: 13.3333339691162px;">*roasted'
p2353
I1
sS'repair which'
p2354
I7
sS'Good Morning'
p2355
I6447
sS'sure reply.Let'
p2356
I1
sS'moving in'
p2357
I91
sS'seeds and'
p2358
I58
sS'for our'
p2359
I911
sS'Mitali which'
p2360
I1
sS'process.. I'
p2361
I54
sS"aren't moving"
p2362
I68
sS'0px;">1.Don\x83??t be'
p2363
I1
sS'coaching to'
p2364
I56
sS"Power! Let's"
p2365
I167
sS'havent installed'
p2366
I1
sS'even sleep'
p2367
I118
sS'/>Keep up'
p2368
I54
sS'Rather than'
p2369
I144
sS'up for'
p2370
I1088
sS'16.7999992370605px;">Can you'
p2371
I53
sS'Vishal. WOw!!!'
p2372
I1
sS'on GOQii'
p2373
I188
sS'be able'
p2374
I1847
sS'/><span style="box-sizing:'
p2375
I620
sS'GOQii band'
p2376
I816
sS'u chatting'
p2377
I1
sS'move further'
p2378
I4
sS'your activity'
p2379
I1201
sS'it.. Thus,'
p2380
I22
sS'body is'
p2381
I513
sS'you eat'
p2382
I886
sS'roaming about'
p2383
I19
sS'well soon'
p2384
I65
sS'auto;"></div></div></div></div><div class="row'
p2385
I1
sS'Tip:You may'
p2386
I16
sS'working towards'
p2387
I281
sS'GOQii, watch'
p2388
I328
sS'it izz.'
p2389
I80
sS'from seeing'
p2390
I66
sS'we can'
p2391
I4701
sS'Hey Buddy'
p2392
I121
sS'kuthe distey.partial'
p2393
I1
sS'feel after'
p2394
I324
sS'and sunflower'
p2395
I23
sS'as per'
p2396
I666
sS'the front'
p2397
I226
sS'back in'
p2398
I1281
sS'workouts/activities are'
p2399
I1
sS'connect with'
p2400
I952
sS'before you'
p2401
I642
sS'health!</div>\r\n<div style="box-sizing:'
p2402
I9
sS'9)Dont have'
p2403
I38
sS'what I'
p2404
I442
sS'it resolved'
p2405
I18
sS'you head'
p2406
I256
sS'time when'
p2407
I181
sS'our continued'
p2408
I5
sS'positive step'
p2409
I10
sS'keep the'
p2410
I708
sS'sandwich</span><br style="box-sizing:'
p2411
I1
sS'thanks for'
p2412
I695
sS'Good going'
p2413
I427
sS'and even'
p2414
I548
sS'about my'
p2415
I241
sS'Special Member'
p2416
I76
sS'can do'
p2417
I1635
sS'timestampchecker 1424530472"'
p2418
I1
sS'see my'
p2419
I124
sS'App, i.e.'
p2420
I262
sS'sleep in'
p2421
I35
sS'sans-serif; line-height:'
p2422
I222
sS'water log'
p2423
I575
sS'today about'
p2424
I3
sS'my food'
p2425
I229
sS'the time'
p2426
I1657
sS'you have'
p2427
I9176
sS'a Special'
p2428
I78
sS'label and'
p2429
I189
sS'going to'
p2430
I3009
sS'13.3333339691162px;">*roasted chickpeas'
p2431
I1
sS'call.&nbsp;</span><a href="http://bit.ly/1EAMpVQ"'
p2432
I2
sS'and feel'
p2433
I604
sS'steps and'
p2434
I393
sS"Let's start"
p2435
I290
sS"children's cereal"
p2436
I180
sS'here comes'
p2437
I183
sS'How was'
p2438
I4383
sS'way for'
p2439
I137
sS"day. Let's"
p2440
I32
sS'19.5px;">&nbsp;Hi Satish.'
p2441
I1
sS'current lifestyle'
p2442
I275
sS'the Lumia'
p2443
I1
sS'current body'
p2444
I146
sS'bad weight'
p2445
I171
sS'/>Did circuit'
p2446
I1
sS'irritation. Last'
p2447
I32
sS'padding: 0px;"><br'
p2448
I751
sS'with it&nbsp;<img'
p2449
I2
sS'and Peanut'
p2450
I2
sS'Hey buddy..'
p2451
I96
sS'Tip:Rather than'
p2452
I25
sS'Poached, Roasted,Steamed)'
p2453
I84
sS'Mitali!&nbsp;<br /><br'
p2454
I1
sS'been a'
p2455
I851
sS'Good Morning!'
p2456
I905
sS'yeah...thatz user'
p2457
I1
sS'<div>Hi&nbsp;<br><br>Every minute'
p2458
I1
sS'is preventing'
p2459
I61
sS'us try'
p2460
I115
sS'!important; height:'
p2461
I568
sS'good source'
p2462
I225
sS'able to'
p2463
I6031
sS'to congratulate\r\nyou'
p2464
I1
sS'know a'
p2465
I2186
sS'to figure'
p2466
I75
sS'day..good going...&nbsp;'
p2467
I1
sS'Glad to'
p2468
I1509
sS'Sorry for'
p2469
I466
sS'line-height: 19.5px;">&nbsp;Hi'
p2470
I1
sS'over. ????&nbsp;<br'
p2471
I1
sS'line-height: 1.2;"><div'
p2472
I108
sS'be glad'
p2473
I301
sS'party'
p2474
I975
sS'of April,here'
p2475
I3
sS'time it'
p2476
I321
sS'Hi,&nbsp;<span style="color:'
p2477
I1
sS'Helol coach'
p2478
I1
sS'class="row control-group"'
p2479
I599
sS'keeping the'
p2480
I371
sS'url(http://coach.goqii.com/webApp/css-img/emoji.png?v=0.2.2) !important;"></span></span></font><div'
p2481
I7
sS'can even'
p2482
I107
sS"Heya,Today's Health"
p2483
I21
sS'Morning! Here'
p2484
I105
sS'affecting you'
p2485
I124
sS'list. The'
p2486
I177
sS'in ways'
p2487
I112
sS'an interesting'
p2488
I580
sS'from skin'
p2489
I40
sS'the Couch.'
p2490
I20
sS'plate appealing'
p2491
I24
sS'you through'
p2492
I510
sS'Ready for'
p2493
I95
sS'Start to'
p2494
I65
sS'of optical'
p2495
I1
sS'\r\nbased sweets!'
p2496
I2
sS'hope you'
p2497
I2651
sS'emoji1f60a" style="box-sizing:'
p2498
I612
sS'for you-</span></div>\r\n<div><span'
p2499
I2
sS'!important; outline-style:'
p2500
I466
sS'our goal?<br>'
p2501
I2
sS'sans-serif;">*fruit yogurt'
p2502
I2
sS"it's a"
p2503
I511
sS'app.&nbsp;&nbsp;Let me'
p2504
I2
sS'you like'
p2505
I1567
sS'data.. The'
p2506
I22
sS'I would'
p2507
I6050
sS'The FIRST'
p2508
I177
sS'Hi Mitali,&nbsp;<span'
p2509
I1
sS'this direction!</span><br'
p2510
I1
sS'we shall'
p2511
I197
sS'54, 54);'
p2512
I317
sS'for all'
p2513
I439
sS'watch it'
p2514
I277
sS'Story -'
p2515
I41
sS'to announce'
p2516
I76
sS'SandwichRoasted flavoured'
p2517
I1
sS'announce that'
p2518
I76
sS'sans-serif" style="box-sizing:'
p2519
I34
sS'morning Mitali.'
p2520
I5
sS'2 fruits???\x9f&nbsp;'
p2521
I1
sS'Roboto, sans-serif;">*boiled'
p2522
I2
sS'slow you'
p2523
I21
sS'aware that'
p2524
I146
sS'active mode.</span><br'
p2525
I7
sS'YOUR WORKOUTS'
p2526
I56
sS'or polluting'
p2527
I171
sS'GOQii user'
p2528
I100
sS'date for'
p2529
I340
sS'CHOICE you'
p2530
I105
sS'like to'
p2531
I4741
sS'are lined'
p2532
I9
sS'pave way'
p2533
I29
sS'Fiber is'
p2534
I191
sS'mentioned earlier,'
p2535
I49
sS'happier you.'
p2536
I29
sS'the product'
p2537
I220
sS'WEEKDAYS'
p2538
I38
sS'special summer'
p2539
I7
sS'the workouts'
p2540
I324
sS'<p><img src="http://goqii-app.s3.amazonaws.com/emoticons/smiley-laughing.gif"'
p2541
I3
sS'the GOQii'
p2542
I2796
sS'you going'
p2543
I278
sS'a chocolate'
p2544
I60
sS'eat my'
p2545
I39
sS'Foods..which will'
p2546
I22
sS'in this'
p2547
I2546
sS'<img class="imageViewerInLarge"'
p2548
I6988
sS'may not'
p2549
I351
sS'the sound'
p2550
I16
sS'the CONSUMER'
p2551
I76
sS'delay in'
p2552
I343
sS'GOQii Family!'
p2553
I67
sS'will be'
p2554
I6685
sS'When can'
p2555
I274
sS'still lapping'
p2556
I20
sS'colours, choose'
p2557
I40
sS'meeting you'
p2558
I38
sS'morning Vishal.'
p2559
I1
sS'little better'
p2560
I144
sS'src="http://goqii-app.s3.amazonaws.com/emoticons/smiley-kiss.gif" alt=""'
p2561
I26
sS"it's about"
p2562
I28
sS'style="font-family:&quot;Verdana&quot;,&quot;sans-serif&quot;;mso-fareast-font-family:&quot;Times New'
p2563
I1
sS'excitement, I'
p2564
I257
sS'band/app related'
p2565
I6
sS'always going'
p2566
I78
sS'month of'
p2567
I172
sS'inherit !important;'
p2568
I466
sS'other toxic'
p2569
I61
sS'style="margin: 12pt'
p2570
I5
sS'better self?</div><div><br></div><div>Why'
p2571
I9
sS'Mitra!!&nbsp;<br><br>Eager to'
p2572
I1
sS'0px; vertical-align:'
p2573
I1586
sS'lifestyle. :)'
p2574
I35
sS'are getting'
p2575
I241
sS'chat /'
p2576
I3
sS'again, your'
p2577
I49
sS'Hey!&nbsp;<span style="color:'
p2578
I1
sS'padding: 0px;"'
p2579
I2738
sS'font-size: 18px;'
p2580
I2509
sS'Health Tip:Weekend'
p2581
I19
sS'dance and'
p2582
I62
sS'1.2;">how have'
p2583
I5
sS'Good to'
p2584
I1332
sS'major role'
p2585
I20
sS'Are we'
p2586
I547
sS'\r\nrelish jaggery-wheat'
p2587
I22
sS'walking sessions'
p2588
I1
sS'line-height: 16.7999992370605px;">&nbsp;</span><span'
p2589
I38
sS'rgb(93, 93,'
p2590
I3730
sS'activity...Keep yourself'
p2591
I22
sS'GOQii. Glad'
p2592
I9
sS'with our'
p2593
I1363
sS'label that'
p2594
I37
sS'lifestyle we'
p2595
I163
sS'can we'
p2596
I1502
sS'on follow'
p2597
I98
sS'you were'
p2598
I697
sS'love if'
p2599
I90
sS'http://goqii.com/blog/lets-dance-for-a-better-health-and-a-better-you/'
p2600
I13
sS'positive or'
p2601
I26
sS'targeting at'
p2602
I1
sS'the lunch?:)'
p2603
I1
sS'New Roman&quot;;\r\nmso-bidi-font-family:Arial;color:#222222"><o:p></o:p></span></p>\r\n\r\n<p'
p2604
I1
sS'BIG letters'
p2605
I177
sS'has gifted'
p2606
I25
sS'just eat'
p2607
I74
sS':) I'
p2608
I340
sS'we will'
p2609
I3197
sS'delete my'
p2610
I2
sS'and are'
p2611
I450
sS'I want'
p2612
I1585
sS'chopped fruits'
p2613
I41
sS'music ....<br>How'
p2614
I1
sS'earlier, the'
p2615
I43
sS'lifestyle and'
p2616
I610
sS'you planned'
p2617
I333
sS'sans-serif;"></div><div><font color="#5d5d5d"'
p2618
I6
sS'Action? :)'
p2619
I22
sS'sleep data'
p2620
I102
sS'natural colourful'
p2621
I19
sS'market tomorrow'
p2622
I98
sS'the food'
p2623
I1212
sS'discussion\r\non your'
p2624
I1
sS'to you?</span>'
p2625
I8
sS'amazing numbers'
p2626
I19
sS'I hope'
p2627
I2572
sS'alt="" /><br'
p2628
I6131
sS'class="emoji emoji1f60a"'
p2629
I654
sS'line-height: 16.7999992370605px;">You'
p2630
I136
sS'16.7999992370605px;">&nbsp;</span><span style="box-sizing:'
p2631
I24
sS'Well, as'
p2632
I10
sS'the fruit.'
p2633
I3
sS'Hi Mitra,&nbsp;<span'
p2634
I1
sS'WOw!!! you'
p2635
I1
sS'how ?'
p2636
I7
sS'healthier choice,'
p2637
I38
sS'you for'
p2638
I1168
sS':)<br /><br'
p2639
I1390
sS'our coaching.???\x9f&nbsp;'
p2640
I1
sS'suspicious you'
p2641
I186
sS'veggies</span><br style="box-sizing:'
p2642
I3
sS'Hello&nbsp;<img src="http://goqii-app.s3.amazonaws.com/emoticons/smiley-smile.gif"'
p2643
I3
sS'rightly said'
p2644
I362
sS'fabulous weekend'
p2645
I40
sS'Start,You have'
p2646
I21
sS'a call'
p2647
I2309
sS'14px; line-height:'
p2648
I3974
sS'dryfruit \r\nbased'
p2649
I2
sS'middle; max-width:'
p2650
I1731
sS"It's been"
p2651
I330
sS'style="box-sizing: border-box;'
p2652
I6190
sS'updating\r\nyour daily'
p2653
I3
sS'0px;">It\'s easy'
p2654
I1
sS'me know'
p2655
I7956
sS'float: right;"><br'
p2656
I8
sS'eat lots'
p2657
I3
sS'list is'
p2658
I214
sS'routine and'
p2659
I702
sS'for late'
p2660
I60
sS'GOQii Life!'
p2661
I251
sS'up mostly'
p2662
I180
sS'Learn some'
p2663
I37
sS'you do'
p2664
I4513
sS'from you..'
p2665
I324
sS'the coaching'
p2666
I440
sS'small letters'
p2667
I181
sS'quick solution'
p2668
I30
sS'workout.&nbsp;<br style="box-sizing:'
p2669
I10
sS'line-height: 16.7999992370605px;">,</span><span'
p2670
I1
s.