(dp0
S''
p1
I191572
sS'productive  10)ORDER WELL'
p2
I16
sS'a healthier choice, for'
p3
I37
sS'you know what buddy,'
p4
I100
sS'the Nutrition Facts label'
p5
I171
sS'truly believe in WILLPOWER!'
p6
I44
sS'start syncing the band'
p7
I25
sS'our call.&nbsp;</span><a href="http://bit.ly/1EAMpVQ" target="_blank"><span'
p8
I1
sS'line-height: 16.7999992370605px;">How have you'
p9
I33
sS'0px; padding: 0px; float:'
p10
I581
sS'can for sure help'
p11
I1
sS'Anybody can D-A-N-C-E! In'
p12
I12
sS'It would be great'
p13
I429
sS'we go ahead. As'
p14
I42
sS'your body is getting'
p15
I8
sS'from getting active on'
p16
I1
sS'just because Dancing is'
p17
I12
sS'after a day or'
p18
I106
sS'initial;"><span style="font-family:&quot;Verdana&quot;,&quot;sans-serif&quot;;mso-fareast-font-family:&quot;Times New Roman&quot;;\r\nmso-bidi-font-family:Arial;color:#222222">Once'
p19
I1
sS'and packaged foods, then'
p20
I37
sS'again, your body stores'
p21
I46
sS'choose the organic ones\r\n'
p22
I1
sS'Roboto, sans-serif;"></div><div><span style="color: rgb(93,'
p23
I4
sS'butter</span><br style="box-sizing: border-box; margin:'
p24
I1
sS'Sorry for late reply'
p25
I21
sS'With immense pleasure and'
p26
I76
sS'stay healthy.Your subscription gets'
p27
I4
sS"Let's start working towards"
p28
I28
sS'fruit. How was your'
p29
I1
sS'that you are starving.'
p30
I46
sS'water),\r\nfitness (steps counts and'
p31
I2
sS'processed and packaged foods,'
p32
I37
sS'are preventing you from'
p33
I6
sS'z-index: inherit !important; -webkit-perspective:'
p34
I466
sS'get the energy boost!&nbsp;???\x9f&nbsp;<br'
p35
I2
sS'necessary it is to'
p36
I29
sS'food you eat...the amount'
p37
I57
sS'GOQii band with the'
p38
I219
sS'to say about my'
p39
I12
sS'2)SPLURGE in a'
p40
I38
sS'times and returned to'
p41
I116
sS'you- When you skip'
p42
I46
sS'going to Gym.&nbsp;<br /><br'
p43
I1
sS'corn chaat</span></div>\r\n<div><span style="color: #5d5d5d;'
p44
I2
sS'grams of fiber per'
p45
I186
sS'idli/dosa with tomato chutney'
p46
I3
sS'line-height: 16.7999992370605px;">PROTEIN.</strong><div style="box-sizing: border-box;'
p47
I7
sS'the list is always'
p48
I186
sS'auto;"></div></div></div></div><div class="row date-box" style="box-sizing:'
p49
I1
sS'1.2; font-family: Roboto, sans-serif;"></span><span'
p50
I1
sS'Family! Moreover, you can'
p51
I48
sS'be perfect, we shall'
p52
I65
sS'stay \r\nmindful while enjoying'
p53
I21
sS'do ON THE WEEKDAYS'
p54
I38
sS'reach 8000 steps..What say?&nbsp;'
p55
I1
sS'four pieces with your'
p56
I44
sS'the least, keep the'
p57
I38
sS'line-height: 16.7999992370605px;">&nbsp;I have an'
p58
I9
sS'10)ORDER WELL while'
p59
I38
sS'wheat Bread and Peanut'
p60
I2
sS'line-height: 20px;"><div class="msg-box pull-right"'
p61
I297
sS'13.3333339691162px;" /><span style="box-sizing: border-box;'
p62
I1
sS'instant cues to decode'
p63
I37
sS'INGREDIENT LIST!</div><div style="box-sizing: border-box;'
p64
I4
sS'WEEKDAYS  4)DONT GO'
p65
I16
sS'and the physical activity'
p66
I57
sS'of April,here comes the'
p67
I3
sS'keep the \r\nlegs moving'
p68
I1
sS'1; color: rgb(255, 66,'
p69
I282
sS'make it happen! Am'
p70
I90
sS'good source of antioxidants'
p71
I3
sS'yogurt with crushed nuts</span><br'
p72
I1
sS'a little more about'
p73
I269
sS'board.<o:p></o:p></span></p>\r\n\r\n<p class="MsoNormal" style="margin: 12pt'
p74
I1
sS'Tip:\x83?\x9b\tDon\x83??t worry if you'
p75
I19
sS'have you on board.<o:p></o:p></span></p>\r\n\r\n<p'
p76
I1
sS'line-height: 16.7999992370605px;">I want to'
p77
I18
sS'in more fat. :)'
p78
I26
sS'away!!&nbsp;</span><br style="box-sizing: border-box; margin:'
p79
I1
sS'fruits and colourful veggie'
p80
I24
sS'lots of optical fiber'
p81
I1
sS'should. Your body thinks'
p82
I46
sS'Roboto, sans-serif; font-size: 13.3333339691162px;">*whole'
p83
I1
sS'with a great enthusiasm'
p84
I6
sS'change you. We could'
p85
I49
sS'/><br /><br /><br /><br'
p86
I223
sS'#5d5d5d; font-family: Roboto, sans-serif;">Do'
p87
I2
sS'a little better today'
p88
I91
sS'Tip :No Matter how'
p89
I20
sS'/>Waiting to hear from'
p90
I157
sS'Mitali!&nbsp;<br /><br />Glad to'
p91
I1
sS'crushed nuts</span><br style="box-sizing: border-box;'
p92
I3
sS'enabling us to work'
p93
I22
sS'0px; padding: 0px; font-size:'
p94
I857
sS'to you?</span></div>\r\n<span style="color: #5d5d5d;'
p95
I1
sS'body is getting an'
p96
I7
sS'nutrition (food and water),\r\nfitness'
p97
I2
sS"you'll know the reason"
p98
I24
sS'you do ON THE'
p99
I38
sS'to connect with you'
p100
I662
sS'the best of time'
p101
I41
sS'15, 2014. So here'
p102
I40
sS'coaching date is May'
p103
I40
sS'Kishor,<br /><br /><span style="box-sizing:'
p104
I1
sS'background-clip: initial; background-position: initial;'
p105
I736
sS'Your liver, 5 months.'
p106
I57
sS'markets and indulge in'
p107
I32
sS'a gradual process.. I'
p108
I52
sS'<p>Hi Dipti</p>\r\n<p>Yes I will'
p109
I1
sS'Health Tip:You may not'
p110
I16
sS'14px; line-height: 16.7999992370605px;"><span style="box-sizing:'
p111
I614
sS'packaging, the more suspicious'
p112
I186
sS'font-size: 18px; line-height: 21.6000003814697px;"'
p113
I1725
sS'5 simple cues and'
p114
I37
sS'/ Corn chatWhole wheat'
p115
I1
sS'emoji1f60a" style="box-sizing: border-box; margin:'
p116
I612
sS'is the new day.'
p117
I1
sS'chutney or sambhar.<br /><br'
p118
I1
sS'and indulge in shopping!</span><div'
p119
I1
sS'the progress bar up!&nbsp;???\x8d???\x9f'
p120
I1
sS'the extension period for'
p121
I5
sS'the organic ones\r\n to'
p122
I1
sS'can we Gear up'
p123
I22
sS'you on board!! I'
p124
I6
sS'or sambhar.<br /><br /></span>Do'
p125
I1
sS'fooled by the BIG'
p126
I177
sS'you can now make'
p127
I76
sS'break a chocolate bar'
p128
I44
sS'margin: 0px; padding: 0px;">It\'s'
p129
I1
sS'Missed meeting you today'
p130
I1
sS'would fill you up'
p131
I167
sS'Last but not the'
p132
I189
sS'and ingredient list. The'
p133
I177
sS'time to relax.. Try'
p134
I22
sS'Sounds good to me'
p135
I12
sS'would help you make'
p136
I37
sS'for an introductory call'
p137
I364
sS'really like to know'
p138
I149
sS'getting active on GOQii'
p139
I1
sS'you skip meals, your'
p140
I46
sS'#5d5d5d; font-family: Roboto, sans-serif;">&nbsp;</span></div>\r\n<div><span'
p141
I2
sS'glad to help you'
p142
I77
sS'GOQii Coach<i>.</i>&nbsp;First of all'
p143
I1
sS'85, 85); font-family: arial,'
p144
I83
sS'take a U-turn right'
p145
I5
sS'2 fruits???\x9f&nbsp; today preferably&nbsp;'
p146
I1
sS'814.875px;"><div class="row text" style="box-sizing:'
p147
I286
sS'margin: 0px; padding: 0px;">5.'
p148
I14
sS'margin: 0px; padding: 0px;"></div><div'
p149
I930
sS'body metabolism slows down'
p150
I46
sS'sans-serif; font-size: 13.3333339691162px;">*whole wheat'
p151
I1
sS'tomato chutney or sambhar.</span></div>\r\n<div><span'
p152
I2
sS'goes live in the'
p153
I76
sS'a LAZY SUNDAY be'
p154
I38
sS'0px 0px 8px; padding:'
p155
I351
sS'through phone or laptop'
p156
I1
sS'Be the force\x83??<o:p></o:p></span></p>\r\n\r\n<p class="MsoNormal"><span'
p157
I1
sS'going for our walks'
p158
I1
sS"Here's a health tip"
p159
I26
sS'font-size: 14px; line-height: 16.7999992370605px;">When'
p160
I34
sS'your weekend going?</span><br style="box-sizing:'
p161
I3
sS'continued coaching to imbibe'
p162
I5
sS'Roman&quot;;\r\nmso-bidi-font-family:Arial;color:#222222">Welcome to GOQii Life!'
p163
I1
sS'going to be a'
p164
I211
sS'line-height: 16.7999992370605px;">I believe you'
p165
I4
sS'ask me today about'
p166
I1
sS'It is very rightly'
p167
I44
sS'introducing special summer offer'
p168
I5
sS'your routine and goals,'
p169
I7
sS'have more information about\r\nyour'
p170
I1
sS'there! :) I truly'
p171
I25
sS'14px; line-height: 16.7999992370605px;">When do'
p172
I3
sS'optionsWhole wheat Grilled SandwichRoasted'
p173
I1
sS'Hey Mitali,&nbsp;<span style="color: rgb(93,'
p174
I1
sS'pieces with your bare'
p175
I44
sS'thinks that you are'
p176
I46
sS'sans-serif;">*boiled corn chaat</span></div>\r\n<div><span style="color:'
p177
I2
sS'support and co-operation through'
p178
I76
sS'day or even after'
p179
I106
sS'day by day and'
p180
I108
sS'not the Quantity of'
p181
I24
sS'Tip:You may not see'
p182
I16
sS'a happier you. :)'
p183
I29
sS'line-height: 21.6000003814697px;" /><span style="box-sizing:'
p184
I289
sS'vertical-align: middle; max-width: 100%;'
p185
I1541
sS'active on GOQii life,'
p186
I1
sS'to rev up your'
p187
I10
sS'facing any band/app related'
p188
I6
sS'are not facing any'
p189
I54
sS'missed on follow up'
p190
I1
sS":) We'll be better"
p191
I101
sS'that GOQii goes live'
p192
I76
sS'with chopped fruits and'
p193
I5
sS'There has been a'
p194
I2
sS'jaggery-wheat based puran poli'
p195
I41
sS'I can analyse your'
p196
I98
sS'active-GET OUTSIDE  7)Get'
p197
I16
sS'So when you eat'
p198
I46
sS"new day. Let's get"
p199
I1
sS'foods that contain partially'
p200
I186
sS'will be multiplied 10'
p201
I118
sS'93, 93); line-height: 1.2;"><div'
p202
I108
sS'the wrong ones! Have'
p203
I22
sS'you going for our'
p204
I1
sS'choice, for a healthier'
p205
I37
sS'a correct choice while'
p206
I37
sS'and will for sure'
p207
I1
sS'for taking a positive'
p208
I7
sS'training, which explains that'
p209
I24
sS'New Roman&quot;;mso-bidi-font-family:Arial;\r\ncolor:#222222"><o:p></o:p></span></p>\r\n\r\n<p class="MsoNormal" style="margin-bottom:'
p210
I1
sS'you through the GOQii'
p211
I319
sS'repair which helps us'
p212
I7
sS'while ordering out'
p213
I38
sS'a GOQii user with'
p214
I9
sS'font-size: 13.3333339691162px;">*whole wheat bread'
p215
I1
sS'Hi,&nbsp;<span style="color: rgb(93, 93,'
p216
I1
sS'and based on this'
p217
I44
sS'we Gear up for'
p218
I22
sS'dont have to be'
p219
I22
sS'that Willpower is an'
p220
I44
sS'to atleast reach 8000'
p221
I1
sS'and I am sure'
p222
I500
sS'You can liberally \r\nrelish'
p223
I22
sS'into four pieces with'
p224
I44
sS'role in muscle growth'
p225
I7
sS'font-size: 18px; line-height: 21.6000003814697px;">How\'s'
p226
I13
sS'Saturday, you gave me'
p227
I1
sS'wheat Grilled SandwichRoasted flavoured'
p228
I1
sS'to Gym.&nbsp;<br /><br />Did'
p229
I1
sS'Roboto, sans-serif; font-size: 13.3333339691162px;"'
p230
I7
sS'of the most important'
p231
I239
sS'0px; padding: 0px;"><div style="box-sizing:'
p232
I13
sS'0px;"></span><span style="box-sizing: border-box; margin:'
p233
I124
sS'great engaging with you'
p234
I42
sS'85); font-family: arial, sans-serif;'
p235
I83
sS'App, i.e. your nutrition'
p236
I244
sS'an interesting stuff to'
p237
I22
sS'I have been emphasizing'
p238
I24
sS'18px; line-height: 21.6000003814697px;">Relishing your'
p239
I3
sS'your friend! Beware of'
p240
I180
sS'is to get active,'
p241
I63
sS'to this link for'
p242
I272
sS'crunchy salads everyday.. which'
p243
I61
sS'with friends , roaming'
p244
I19
sS'you are finding it'
p245
I62
sS'from you soon.&nbsp;</span><div class="row'
p246
I1
sS'vertical-align: middle; max-width: 64px'
p247
I299
sS'New Roman&quot;;\r\nmso-bidi-font-family:Arial;color:#222222"><o:p></o:p></span></p>\r\n\r\n<p class="MsoNormal" style="margin-bottom:'
p248
I1
sS'today- My blog post'
p249
I18
sS'initial; background-origin: initial; background-clip:'
p250
I736
sS"Let's Get Going!!! ;"
p251
I60
sS'summer offer to stay'
p252
I5
sS'direction!</span><br style="box-sizing: border-box; margin:'
p253
I1
sS'food when nature has'
p254
I24
sS'it doesn\x83??t challenge you,'
p255
I33
sS'date. Are we constantly'
p256
I11
sS'to decode the nutrition'
p257
I37
sS'16.7999992370605px;">,</span><span style="box-sizing: border-box; margin:'
p258
I1
sS'a healthier you!&nbsp;<img class="imageViewerInLarge"'
p259
I2
sS'font-size: 13.3333339691162px;">*boiled black chanas'
p260
I1
sS'we can schedule a'
p261
I247
sS'you have already reached'
p262
I7
sS'Roboto, sans-serif;"></div><div><font color="#5d5d5d" face="Roboto,'
p263
I6
sS'Ohhh...:( <br>Well today is'
p264
I1
sS'I have worked towards'
p265
I9
sS'are always going to'
p266
I76
sS'the most important macronutrient-&nbsp;</span><strong'
p267
I6
sS'walks listening to music'
p268
I1
sS'of all I would'
p269
I10
sS'connect with you for'
p270
I219
sS'of fruits and colourful'
p271
I24
sS'on GOQii life, please'
p272
I1
sS"that it's about the"
p273
I24
sS'plan our next steps.<o:p></o:p></span></p>\r\n\r\n<p'
p274
I1
sS'options for you-</span><br style="box-sizing:'
p275
I1
sS'10 Tips for a'
p276
I38
sS'play with colours, choose'
p277
I40
sS'line-height: 16.7999992370605px;">Do you??&nbsp;</div>\r\n<div style="box-sizing:'
p278
I7
sS'nuts (almonds, walnuts)&nbsp;Roasted MakhanasRoasted'
p279
I1
sS'it. Well, as we'
p280
I7
sS'and have us move'
p281
I1
sS'time favourite activity! ;)'
p282
I12
sS'more active by playing'
p283
I74
sS'on the label.<br style="box-sizing:'
p284
I13
sS'journey, I\r\nas your coach'
p285
I1
sS'for some mindful eating'
p286
I1
sS'5 months. Your bones,'
p287
I57
sS'happy to get it'
p288
I15
sS'line-height: 16.7999992370605px;">Hope we aren\'t'
p289
I1
sS"aren't moving in this"
p290
I68
sS'Hey Satish its great'
p291
I1
sS'every SMART CHOICE you'
p292
I103
sS'the sweets offered to'
p293
I46
sS'loved ones, make sure'
p294
I41
sS'raisins, black currants, figs,'
p295
I2
sS'sans-serif;">*roasted chickpeas or soy'
p296
I2
sS'natural colourful foods! Colours,'
p297
I19
sS"day!! Let's get started"
p298
I42
sS'have to be Great'
p299
I21
sS'important macronutrient-&nbsp;</span><strong style="box-sizing: border-box;'
p300
I6
sS'Can we try in'
p301
I1
sS'have got a kingdom'
p302
I60
sS'keep the progress bar'
p303
I1
sS'Look for the small'
p304
I186
sS'aim to be a'
p305
I90
sS'are facing any obstacles'
p306
I15
sS'to be Great To'
p307
I21
sS"example: children's cereal boxes)<br"
p308
I50
sS'Roboto, sans-serif; font-size: 17.7777786254883px;'
p309
I86
sS'from seeing others achieve'
p310
I66
sS'bay.</div><div style="box-sizing: border-box; margin:'
p311
I7
sS'target="_blank"><span style="font-family:&quot;Verdana&quot;,&quot;sans-serif&quot;;\r\nmso-fareast-font-family:&quot;Times New Roman&quot;;mso-bidi-font-family:Arial;\r\ncolor:#1155CC">http://bit.ly/1smgaiI</span></a><span'
p312
I1
sS'<br>Well today is the'
p313
I1
sS'0px; background-image: url(http://coach.goqii.com/webApp/css-img/emoji.png?v=0.2.2) !important;"></span></span></font><div'
p314
I7
sS'66);"><div class="pull-right timestampchecker 1424530472"'
p315
I1
sS'Hey hi, thanks for'
p316
I1
sS'activity...Keep yourself full with'
p317
I22
sS'93); line-height: 1.2;"><div class="row'
p318
I34
sS"sure it's gonna get"
p319
I42
sS'Good going with activity'
p320
I3
sS'target. If it doesn\x83??t'
p321
I33
sS'liver, 5 months. Your'
p322
I57
sS'working towards our GOAL..'
p323
I23
sS'video:&nbsp;</span><a href="http://bit.ly/1smgaiI" target="_blank"><span style="font-family:&quot;Verdana&quot;,&quot;sans-serif&quot;;\r\nmso-fareast-font-family:&quot;Times'
p324
I1
sS'meeting the protein demand'
p325
I7
sS"if it's sugar, the"
p326
I37
sS'in this direction!</span><br style="box-sizing:'
p327
I1
sS'3)Eat like you'
p328
I38
sS'0px;">1.Don\x83??t be fooled by'
p329
I1
sS'of the workout.&nbsp;<br style="box-sizing:'
p330
I10
sS'friend! Beware of whole'
p331
I180
sS'You may not see'
p332
I109
sS'cup of curd with'
p333
I5
sS'What exercise should is'
p334
I1
sS'a full power music'
p335
I2
sS'your family, relatives and'
p336
I76
sS'to play with colours,'
p337
I40
sS'activity that you do.'
p338
I57
sS'14px; line-height: 16.7999992370605px;">how\'s it'
p339
I4
sS'tomorrow i.e. August 1st,'
p340
I76
sS'the app.&nbsp;&nbsp;Let me know'
p341
I2
sS'even after a week...'
p342
I101
sS'is an ability to'
p343
I44
sS'/><br /><br /><br />'
p344
I841
sS'is very smooth. Let'
p345
I1
sS'chatting through player app'
p346
I1
sS'we need to take'
p347
I43
sS'16.7999992370605px;">Bela Gupta, A GOQii'
p348
I11
sS'like to know more'
p349
I83
sS'app calling is very'
p350
I1
sS'it happen! Am I'
p351
I90
sS'margin: 0px; padding: 0px;">4.'
p352
I14
sS'plz change your time'
p353
I1
sS'line-height: 16.7999992370605px;">&nbsp;</div>\r\n<div style="box-sizing: border-box;'
p354
I184
sS'and repair which helps'
p355
I7
sS'Foods..which will make it'
p356
I22
sS'partially hydrogenated oil and'
p357
I186
sS'the intake of fruits'
p358
I27
sS'tomato chutney or sambhar.<br'
p359
I1
sS'upload your food and'
p360
I14
sS'get connected over a'
p361
I115
sS'from the external invaders'
p362
I63
sS'font-family: Roboto, sans-serif;">Do they'
p363
I2
sS'call and have a'
p364
I9
sS'of the package. Look'
p365
I144
sS'class="imageViewerInLarge" src="http://goqii-app.s3.amazonaws.com/user/user/s_1426669929.jpg" alt="" data-mce-src="http://goqii-app.s3.amazonaws.com/user/user/s_1426669929.jpg">'
p366
I1
sS'control-group" style="box-sizing: border-box; margin:'
p367
I584
sS'Tejal\r\nGupte, your GOQii Coach<i>.</i>&nbsp;First'
p368
I1
sS'about your health goals.<br'
p369
I9
sS'veggie salads.&nbsp;<img class="chromoji" style="box-sizing:'
p370
I1
sS'band data.. The more'
p371
I22
sS'Hello Vishal. Ready for'
p372
I1
sS'BIG letters on the'
p373
I177
sS'12pt 0in 0.0001pt; background-image:'
p374
I1
sS'your body weight and'
p375
I120
sS'flavoured Chanas/Chickpeas/Soya nutsMoong or'
p376
I1
sS'am sure you have'
p377
I237
sS'be happy to get'
p378
I5
sS'color="#5d5d5d" face="Roboto, sans-serif"><span style="font-size:'
p379
I35
sS'to know more about'
p380
I450
sS"health goals.<br /><br />Let's"
p381
I5
sS'on board.<o:p></o:p></span></p>\r\n\r\n<p class="MsoNormal" style="margin:'
p382
I1
sS'time with your loved'
p383
I43
sS'label.<br style="box-sizing: border-box; margin:'
p384
I13
sS'Health Tip:How important it'
p385
I15
sS'21.6000003814697px;" /><span style="box-sizing: border-box;'
p386
I289
sS'in breakfast its very'
p387
I1
sS'and keep the progress'
p388
I1
sS'Roboto, sans-serif;"></span><span style="color: rgb(93,'
p389
I1
sS'!important; padding: 0em !important;'
p390
I466
sS'me through user login?'
p391
I1
sS'you excel in this.'
p392
I43
sS'0px; color: #5d5d5d; font-family:'
p393
I2339
sS'pour in.. The better'
p394
I22
sS'exercise should is do&nbsp;'
p395
I1
sS'the energy boost!&nbsp;???\x9f&nbsp;<br data-mce-bogus="1">'
p396
I2
sS'18px; line-height: 21.6000003814697px;" /><br'
p397
I499
sS'cues to decode the'
p398
I37
sS'minutes call and have'
p399
I7
sS'none !important; top: 0.25em'
p400
I427
sS'see my steps and'
p401
I1
sS'smooth. Let us try'
p402
I1
sS'padding: 0px; color: rgb(93,'
p403
I2792
sS'/></span>Do the sound good'
p404
I1
sS'have to be Start'
p405
I21
sS'1.2; font-family: Roboto, sans-serif;">would'
p406
I1
sS'your favorite food/relaxing/travelling/meeting friends?</span>'
p407
I3
sS'Mitali<span style="color: rgb(93, 93,'
p408
I2
sS'stretches to avoid tiredness:)'
p409
I1
sS'granola bars, crackers &amp;'
p410
I180
sS'shining my dashboard.<img class="imageViewerInLarge"'
p411
I1
sS'a detailed discussion\r\non your'
p412
I1
sS'target, to which I'
p413
I1
sS'Have a fabulous weekend'
p414
I25
sS'1.2;"><br style="box-sizing: border-box; margin:'
p415
I56
sS'go ahead. As mentioned'
p416
I42
sS'hit your targets consistently!'
p417
I22
sS'Coach<i>.</i>&nbsp;First of all I'
p418
I1
sS'sambhar.</span></div>\r\n<div><span style="color: #5d5d5d; font-family:'
p419
I2
sS'have the best of'
p420
I42
sS'make sure you stay'
p421
I42
sS'1.2; font-family: Roboto, sans-serif;">if'
p422
I1
sS'up with all the'
p423
I168
sS'nuts</span></div>\r\n<div><span style="color: #5d5d5d; font-family:'
p424
I2
sS'none !important; float: none'
p425
I466
sS'more exciting as we'
p426
I42
sS'Hi Kishor,<br /><br /><span'
p427
I1
sS'save yourself from putting'
p428
I171
sS'always going to be'
p429
I28
sS'encourage them to lead'
p430
I76
sS'line-height: 21.6000003814697px;">How\'s your weekend'
p431
I3
sS'weight and check out'
p432
I7
sS'is the time when'
p433
I85
sS'you :)<br /><br />'
p434
I17
sS'need to get back'
p435
I89
sS'protein requirement as per'
p436
I131
sS'up the GOQii band'
p437
I162
sS'GOQii band and the'
p438
I8
sS'Mitali????&nbsp;<br>How was your weekend?'
p439
I1
sS'font-size: 12px; line-height: 1;'
p440
I314
sS'font-size: 14px; line-height: 16.7999992370605px;"></span><span'
p441
I20
sS'i.e. August 1st, 2014,'
p442
I76
sS'body keeping the fat'
p443
I7
sS'get started with a'
p444
I55
sS'would be great if'
p445
I506
sS'sugar)</div><div style="box-sizing: border-box; margin:'
p446
I4
sS'be a Special Member'
p447
I26
sS'better today than we'
p448
I65
sS're-energized and refreshed! The'
p449
I29
sS'!important; outline-style: none !important;'
p450
I466
sS'padding: 0px; line-height: 16.7999992370605px;"><br></span></font></div>'
p451
I9
sS'Hey Shimpli. .How are'
p452
I1
sS'it is to protect'
p453
I29
sS'!important; height: 1.2em !important;'
p454
I157
sS"delay? Let's take a"
p455
I9
sS'dancing , taking long'
p456
I19
sS'the BIGGEST! ( if'
p457
I116
sS'Roman&quot;;mso-bidi-font-family:Arial;\r\ncolor:#222222">I look forward to'
p458
I1
sS'0px; font-size: 14px; color:'
p459
I467
sS'see results after a'
p460
I106
sS'background-position: initial; background-repeat: initial;"><span'
p461
I214
sS'10 times and returned'
p462
I116
sS'padding: 0px;" /><br style="box-sizing:'
p463
I638
sS'0px;"></div></div></div></div></div><div class="row date-box" style="box-sizing:'
p464
I3
sS'Put them together and'
p465
I42
sS'WEEK AHEAD  9)Dont'
p466
I16
sS'need to take a'
p467
I51
sS'you pour in.. The'
p468
I22
sS'Beware of whole grain'
p469
I186
sS'Chanas/Chickpeas/Soya nutsMoong or besan'
p470
I1
sS'the super markets and'
p471
I32
sS'from the fruit. How'
p472
I1
sS'sans-serif; font-size: 13.3333339691162px;">*fruit yogurt'
p473
I1
sS'data you pour in..'
p474
I22
sS'mindful eating at the'
p475
I1
sS'bad weight or polluting'
p476
I171
sS'listed down a few'
p477
I5
sS'down a few evening'
p478
I3
sS'doesn\x83??t change you. We'
p479
I33
sS'be fooled by the'
p480
I186
sS'Roman&quot;;\r\nmso-bidi-font-family:Arial;color:#222222">Hope you are exploring'
p481
I1
sS'out our goals too.&nbsp;</span><div'
p482
I2
sS'Shine and Stretch... Find'
p483
I22
sS'know more about your'
p484
I290
sS'(steps counts and additional'
p485
I279
sS'fat levels at bay.</div><div'
p486
I7
sS'line-height: 16.7999992370605px;">Proteins play a'
p487
I7
sS'later date. Are we'
p488
I11
sS'than usual resulting in'
p489
I46
sS'in WILLPOWER! It is'
p490
I44
sS'difficult.. Grab some colorful'
p491
I29
sS"Buddy! It's been great"
p492
I42
sS'to get the energy'
p493
I4
sS'you are facing any'
p494
I679
sS'healthier you!&nbsp;<img class="imageViewerInLarge" src="http://goqii-app.s3.amazonaws.com/user/user/s_1424510585.jpg"'
p495
I2
sS'Roboto, sans-serif; font-size: 13.3333339691162px;">*at'
p496
I1
sS'purchasing the food.<br style="box-sizing:'
p497
I1
sS'font-size: 14px; color: rgb(93,'
p498
I368
sS'Roboto, sans-serif;">Do they sound'
p499
I2
sS'margin: 0em !important; padding:'
p500
I461
sS'back in action!<br /><br'
p501
I3
sS'every minute you spend'
p502
I66
sS'Buddy,Weekend Health Tip:Weekend time'
p503
I19
sS'your health goals.<br /><br'
p504
I14
sS'full with the Right'
p505
I22
sS'font-family: Roboto, sans-serif;">*whole wheat'
p506
I2
sS'a U-turn right away!!&nbsp;</span><br'
p507
I1
sS'THE WEEKDAYS  4)DONT'
p508
I16
sS'colours, choose the organic'
p509
I38
sS'font-size: 14px; line-height: 16.7999992370605px;">https://goqii.com/blog/phytochemicals-why-is-it-important-to-go-colourful/</div>'
p510
I9
sS'5)Schedule some RELAXATION time'
p511
I38
sS'sans-serif;">weekend is the time'
p512
I1
sS'&amp; pasta with at'
p513
I180
sS'market tomorrow i.e. August'
p514
I76
sS'8)Prepare for the'
p515
I38
sS'rgb(93, 93, 93); font-family:'
p516
I3323
sS'grilled veggie sandwich</span></div>\r\n<div><span style="color:'
p517
I2
sS'get back on the'
p518
I71
sS'activity plan for today?'
p519
I7
sS'letters on the front'
p520
I186
sS'LAZY SUNDAY be productive'
p521
I38
sS'The FIRST ingredient on'
p522
I177
sS'Not just because Dancing'
p523
I12
sS'to GOQii. Glad to'
p524
I8
sS'13.3333339691162px;">*fruit yogurt with crushed'
p525
I1
sS'colourful veggie salads.&nbsp;<img class="chromoji"'
p526
I1
sS'body cells from the'
p527
I61
sS'0px; padding: 0px;"></div></div></div></div></div><div class="row'
p528
I3
sS'66); font-family: Roboto, sans-serif;"></div><div><font'
p529
I6
sS'children\'s cereal boxes)<br style="box-sizing:'
p530
I1
sS'more attractive the packaging,'
p531
I183
sS'Good morning Player! Rather'
p532
I38
sS'line-height: 16.7999992370605px;">Hey &nbsp;Satish, I'
p533
I1
sS'today about it, I'
p534
I1
sS'taking long walks with'
p535
I19
sS'if you are finding'
p536
I62
sS"and Power! Let's Get"
p537
I167
sS'sim to get activated'
p538
I1
sS'our continued coaching to'
p539
I5
sS'analyse your data.. :)'
p540
I1
sS'shopping!</span><div class="row control-group" style="box-sizing:'
p541
I1
sS'the Energy and Power!'
p542
I167
sS"breakfast...???\x9f&nbsp;<br>So what's your activity"
p543
I1
sS'your body stores away'
p544
I46
sS'others achieve their goals.'
p545
I64
sS'The more attractive the'
p546
I186
sS'to which I replied'
p547
I1
sS'0px;"><br style="box-sizing: border-box; margin:'
p548
I727
sS'with the app.&nbsp;&nbsp;Let me'
p549
I2
sS'yourself from putting on'
p550
I171
sS'14px; line-height: 16.7999992370605px;">PROTEIN.</strong><div style="box-sizing:'
p551
I7
sS'cells from the external'
p552
I61
sS'good to you?</span></div>\r\n<span style="color:'
p553
I1
sS'Here begins the action-packed'
p554
I105
sS'affecting you in ways'
p555
I108
sS'background-size: initial; background-origin: initial;'
p556
I736
sS'16.7999992370605px;">,&nbsp;</span><span style="box-sizing: border-box; margin:'
p557
I1
sS'or sambhar.</span></div>\r\n<div><span style="color: #5d5d5d;'
p558
I2
sS'font-size: 14px; line-height: 16.7999992370605px;">I'
p559
I1079
sS"Player! It's a weekend.."
p560
I22
sS'and encourage them to'
p561
I76
sS'class="msg-box pull-right" style="box-sizing: border-box;'
p562
I578
sS'take a first step'
p563
I10
sS'is Queen. Put them'
p564
I20
sS'for you to avoid'
p565
I22
sS'is meeting the protein'
p566
I7
sS'How was your journey?'
p567
I2
sS'(almonds, walnuts)&nbsp;Roasted MakhanasRoasted pumpkin'
p568
I1
sS'to make sure you'
p569
I136
sS'get even more exciting'
p570
I42
sS'&nbsp;Satish, I would like'
p571
I1
sS'great if you start'
p572
I36
sS'SandwichRoasted flavoured Chanas/Chickpeas/Soya nutsMoong'
p573
I1
sS'margin: 0px; padding: 0px;">3.'
p574
I16
sS'party  5)Schedule some'
p575
I16
sS'padding: 0px;">If you plan'
p576
I2
sS'kingdom of good health.'
p577
I60
sS'Mitra!!&nbsp;<br><br>Eager to see you!'
p578
I1
sS'body thinks that you'
p579
I46
sS'on the Nutrition Facts'
p580
I171
sS'mode.</span><br style="box-sizing: border-box; margin:'
p581
I9
sS'started..Our target for today'
p582
I1
sS'and make it happen!'
p583
I105
sS'your current body weight?</div>'
p584
I15
sS'your support and co-operation'
p585
I76
sS'detailed discussion\r\non your routine'
p586
I1
sS'coaching to imbibe more'
p587
I5
sS'-webkit-perspective: none !important; float:'
p588
I466
sS'sandwich</span></div>\r\n<div><span style="color: #5d5d5d; font-family:'
p589
I2
sS'<div><span style="color: #5d5d5d; font-family:'
p590
I18
sS'on this we can'
p591
I130
sS'active mode.</span><br style="box-sizing: border-box;'
p592
I6
sS'the label.<br style="box-sizing: border-box;'
p593
I13
sS'class="row control-group" style="box-sizing: border-box;'
p594
I584
sS'more than usual resulting'
p595
I46
sS'Willpower is an ability'
p596
I44
sS'with at least 2'
p597
I187
sS'Player,You know Player... every'
p598
I16
sS'font-family: Roboto, sans-serif;">weekend is'
p599
I1
sS'some colorful fruits or'
p600
I29
sS'daily upload your food'
p601
I1
sS'our goals too.&nbsp;</span><div style="box-sizing:'
p602
I2
sS'some time to relax..'
p603
I22
sS'a weekend.. Rise and'
p604
I22
sS'Hey Coach r u'
p605
I1
sS'line-height: 19.5px;">&nbsp;Hi Satish. Welcome'
p606
I1
sS'value to our health!</div>\r\n<div'
p607
I9
sS'would pave way for'
p608
I29
sS'connecting!Glad to have u'
p609
I1
sS'colouring agents to your'
p610
I24
sS'the market tomorrow i.e.'
p611
I76
sS'0px;">5. Fiber is your'
p612
I2
sS'grilled veggie sandwich</span><br style="box-sizing:'
p613
I1
sS'in hybernate.&nbsp;<img src="http://goqii-app.s3.amazonaws.com/emoticons/smiley-laughing.gif" alt=""'
p614
I1
sS'could watch it and'
p615
I49
sS'GOQii. Be the force\x83??<o:p></o:p></span></p>\r\n\r\n<p'
p616
I1
sS'those pieces!! :) I'
p617
I44
sS'class="imageViewerInLarge" src="http://goqii-app.s3.amazonaws.com/conversation/1413798273_100X100.png" alt="" /><br'
p618
I1
sS'foods! Colours, which not'
p619
I24
sS'little better today than'
p620
I90
sS'healthy.Your subscription gets over'
p621
I4
sS'all I would like'
p622
I9
sS'know Player... every 28'
p623
I48
sS'this direction!</span><br style="box-sizing: border-box;'
p624
I1
sS'I enjoy my walks'
p625
I1
sS'Good Morning! Here begins'
p626
I105
sS'0px;" />Why add those'
p627
I7
sS'the wagon and shift'
p628
I47
sS'you soon.&nbsp;</span><div class="row date-box"'
p629
I1
sS'are finding it difficult'
p630
I63
sS'and colourful veggie salads.&nbsp;<img'
p631
I1
sS'delay in results.</span><br style="box-sizing:'
p632
I1
sS'Satish!<br /><br />Keep up'
p633
I1
sS'for the sim to'
p634
I1
sS'pasta with at least'
p635
I186
sS'GOQii Life! I am'
p636
I91
sS"Here's what"
p637
I15
sS'roaming about places,going shopping,etc.'
p638
I19
sS'Satish its great you'
p639
I1
sS'is not getting sync'
p640
I27
sS'enthusiasm from tomorrow! #betheforce'
p641
I6
sS'gradual process.. I would'
p642
I52
sS"/><br />Let's get connected"
p643
I58
sS'you, it doesn\x83??t change'
p644
I33
sS'then hold on! Learn'
p645
I37
sS'eat.(Grilled, Poached, Roasted,Steamed) #betheforce'
p646
I51
sS'any obstacles that are'
p647
I1
sS'cereal boxes)<br style="box-sizing: border-box;'
p648
I1
sS'at bay.</div><div style="box-sizing: border-box;'
p649
I7
sS'line-height: 16.7999992370605px;"><br style="box-sizing: border-box;'
p650
I1818
sS'over the next 2'
p651
I1
sS'per serving on the'
p652
I186
sS'1.2em !important; background-color: transparent'
p653
I103
sS'lead a healthier lifestyle.'
p654
I72
sS'too difficult.. Grab some'
p655
I29
sS'And how are walking'
p656
I1
sS'https://soundcloud.com/goqii/betheforce-goqii that would fill'
p657
I84
sS'0px;">If you plan to'
p658
I2
sS'if your body is'
p659
I7
sS'it easier for you'
p660
I24
sS'66, 66);"><div class="pull-right timestampchecker'
p661
I3
sS'1)DO YOUR WORKOUTS in'
p662
I38
sS"Hey Player! It's a"
p663
I22
sS'on the wagon and'
p664
I59
sS'relax.. Try a new'
p665
I22
sS'packaged foods, then hold'
p666
I37
sS'start working towards our'
p667
I31
sS'Health Tip :No Matter'
p668
I20
sS'Cool can u see'
p669
I1
sS'would like you to'
p670
I492
sS'Roboto, sans-serif;">*whole wheat bread'
p671
I2
sS'than you were yesterday'
p672
I25
sS'the protein demand of'
p673
I7
sS'better today than you'
p674
I25
sS'the GOQii band and'
p675
I34
sS'FIRST ingredient on the'
p676
I177
sS'follow up baby.</p>\r\n<p>On Saturday,'
p677
I1
sS'background-repeat: initial;"><span style="font-family:&quot;Verdana&quot;,&quot;sans-serif&quot;;mso-fareast-font-family:&quot;Times New'
p678
I1
sS'hit those targets consistently.'
p679
I49
sS'<img class="imageViewerInLarge" src="http://goqii-app.s3.amazonaws.com/user/images/s_1398265226.jpg" alt=""'
p680
I1
sS'padding: 0px;">4. Avoid foods'
p681
I2
sS'to us at a'
p682
I13
sS'information about\r\nyour lifestyle we'
p683
I1
sS'font-size: 14px; line-height: 16.7999992370605px;">If'
p684
I93
sS'Hi Mitali<span style="color: rgb(93,'
p685
I1
sS'you make a correct'
p686
I37
sS'Hey Mitz.. u r'
p687
I1
sS'Please start syncing it!</div><div><br></div>'
p688
I1
sS'the front of the'
p689
I186
sS'of water you drink'
p690
I62
sS'fruits or some crunchy'
p691
I29
sS'0px; line-height: 16.7999992370605px;"><span class="emoji'
p692
I15
sS'Morning! Here begins the'
p693
I105
sS'to relax.. Try a'
p694
I22
sS'you head out for'
p695
I58
sS'dance and swirl all'
p696
I40
sS'easier for you to'
p697
I29
sS'!important; visibility: inherit !important;'
p698
I466
sS'Queen. Put them together'
p699
I20
sS"Let's get started with"
p700
I59
sS'you drink and the'
p701
I57
sS'/><br /></span>Do the sound'
p702
I1
sS'will be happy to'
p703
I31
sS'me today about it,'
p704
I1
sS'dryfruit \r\nbased sweets! If'
p705
I1
sS'the next 2 days?<br'
p706
I1
sS'chickpeas or soy nuts</span></div>\r\n<div><span'
p707
I2
sS'wheat grilled veggie sandwich</span><br'
p708
I1
sS'fructose corn syrup on'
p709
I186
sS';)   http://goqii.com/blog/lets-dance-for-a-better-health-and-a-better-you/'
p710
I12
sS'learn, you just got'
p711
I171
sS'imagine!! So keep going...!!'
p712
I91
sS'line-height: 1; color: rgb(255,'
p713
I282
sS'you make is affecting'
p714
I106
sS'can plan our next'
p715
I125
sS'organic ones\r\n to keep'
p716
I1
sS'nn'
p717
I4
sS'muscle growth and repair'
p718
I24
sS'start the coaching soon.'
p719
I4
sS'16.7999992370605px;">&nbsp;sometimes inspiration comes from'
p720
I2
sS'6)Do something active-GET'
p721
I38
sS'our next steps.<o:p></o:p></span></p>\r\n\r\n<p class="MsoNormal"'
p722
I1
sS'skip meals, your body'
p723
I46
sS"Here's what I have"
p724
I12
sS"going...!! :) We'll be"
p725
I96
sS'you today Mitra!!&nbsp;<br><br>Eager to'
p726
I1
sS'the WEEK AHEAD'
p727
I38
sS'pull-right" style="box-sizing: border-box; margin:'
p728
I581
sS'to be perfect, just'
p729
I25
sS"the day!! Let's get"
p730
I42
sS'Roboto, sans-serif;">*roasted makhanas</span></div>\r\n<div><span style="color:'
p731
I2
sS'plate appealing but add'
p732
I24
sS'be aware that a'
p733
I4
sS'additional fitness activity) and'
p734
I194
sS'the protein requirement as'
p735
I122
sS'to pick some processed'
p736
I37
sS'crap!<br style="box-sizing: border-box; margin:'
p737
I1
sS'GOQii family and encourage'
p738
I63
sS'appealing but add tremendous'
p739
I24
sS'subscription gets over in'
p740
I4
sS'a chocolate bar into'
p741
I44
sS'sambhar.<br /><br /></span>Do the'
p742
I1
sS'you feel after finishing'
p743
I1
sS'planned to rev up'
p744
I4
sS'New Roman&quot;;mso-bidi-font-family:Arial;\r\ncolor:#222222">&nbsp;<o:p></o:p></span></p>\r\n\r\n<p class="MsoNormal" style="margin-bottom:'
p745
I1
sS'you had a mango'
p746
I2
sS'border-box; margin: 0em !important;'
p747
I299
sS'14px; line-height: 16.7999992370605px;">Do you??&nbsp;</div>\r\n<div'
p748
I7
sS'a major role in'
p749
I9
sS'drink and the physical'
p750
I57
sS'93); font-family: Roboto, sans-serif;'
p751
I3318
sS'I will be happy'
p752
I26
sS'and Stretch... Find some'
p753
I22
sS'1 !important; outline-style: none'
p754
I466
sS':)'
p755
I16362
sS"Player,Today's Health Tip:You may"
p756
I16
sS'on bad weight or'
p757
I171
sS'style="font-family:&quot;Verdana&quot;,&quot;sans-serif&quot;;\r\nmso-fareast-font-family:&quot;Times New Roman&quot;;mso-bidi-font-family:Arial;\r\ncolor:#222222">&nbsp;</span></p>\r\n\r\n<p class="MsoNormal"'
p758
I1
sS'all over. ????&nbsp;<br data-mce-bogus="1"></div>'
p759
I1
sS'you are not burning'
p760
I46
sS'gonna get even more'
p761
I42
sS'solution to it is'
p762
I62
sS'watch it and we'
p763
I49
sS'AHEAD  9)Dont have'
p764
I16
sS'for the small letters'
p765
I180
sS'please share it with'
p766
I10
sS'the Quality and not'
p767
I24
sS'step towards a healthy'
p768
I16
sS'feel accountable and will'
p769
I1
sS'style="font-family:&quot;Verdana&quot;,&quot;sans-serif&quot;;mso-fareast-font-family:&quot;Times New Roman&quot;;\r\nmso-bidi-font-family:Arial;color:#222222">Once we'
p770
I1
sS"Super cool breakfast...???\x9f&nbsp;<br>So what's"
p771
I1
sS'to see you back'
p772
I278
sS'the morning before you'
p773
I56
sS'demand of your body.&nbsp;</div><div'
p774
I7
sS'<div style="box-sizing: border-box; margin:'
p775
I2456
sS'margin: 0px; padding: 0px;">2.'
p776
I16
sS'font-size: 14px; line-height: 16.7999992370605px;">You'
p777
I128
sS'inline !important; left: 0px'
p778
I466
sS'to it is not'
p779
I61
sS'my All time favourite'
p780
I12
sS'WORKOUTS in the morning'
p781
I56
sS'stared going to Gym.&nbsp;<br'
p782
I1
sS'must be aware that'
p783
I25
sS'0px none; vertical-align: middle;'
p784
I451
sS'are lined up over'
p785
I1
sS'was your journey? Don,t'
p786
I1
sS'contain partially hydrogenated oil'
p787
I186
sS'!important; position: relative !important;'
p788
I466
sS'GOQii Band\r\nand App, and'
p789
I1
sS'antioxidants from the fruit.'
p790
I1
sS'To begin with, start'
p791
I7
sS'a great Willpower too.'
p792
I44
sS'and you have got'
p793
I44
sS'active here.&nbsp;</span><font color="#5d5d5d" face="Roboto,'
p794
I1
sS'Poached, Roasted,Steamed) #betheforce'
p795
I76
sS'day  2)SPLURGE in'
p796
I16
sS'have already reached your'
p797
I1
sS'very sleep in afternoon..what'
p798
I1
sS'fiber per serving on'
p799
I186
sS'Roboto, sans-serif;">*whole wheat grilled'
p800
I2
sS'log as well, so'
p801
I2
sS'to avoid the wrong'
p802
I22
sS'be productive  10)ORDER'
p803
I16
sS'your half of the'
p804
I1
sS'to our exciting journey'
p805
I120
sS'mango in breakfast its'
p806
I1
sS'away from skin irritation.'
p807
I19
sS'/><br />Keep up with'
p808
I14
sS'font-size: 14px; line-height: 16.7999992370605px;">Proteins'
p809
I34
sS'better I will be'
p810
I22
sS'of your body.&nbsp;</div><div style="box-sizing:'
p811
I7
sS'1.2; font-family: Roboto, sans-serif;"><br></span></div>'
p812
I4
sS'data.. The more data'
p813
I22
sS'atleast reach 8000 steps..What'
p814
I1
sS'sans-serif; font-size: 13.3333339691162px;" /><span'
p815
I1
sS'our workouts, and keep'
p816
I1
sS'background-image: initial; background-attachment: initial;'
p817
I736
sS'of curd with chopped'
p818
I4
sS'label that would help'
p819
I37
sS'too.&nbsp;</span><div style="box-sizing: border-box; margin:'
p820
I2
sS'16.7999992370605px;">You must be aware'
p821
I1
sS'us try today ?&nbsp;'
p822
I1
sS'make is affecting you'
p823
I106
sS'lapping everybody on the'
p824
I20
sS'label.</div><div style="box-sizing: border-box; margin:'
p825
I7
sS'hybernate.&nbsp;<img src="http://goqii-app.s3.amazonaws.com/emoticons/smiley-laughing.gif" alt="" />'
p826
I1
sS'Hi Mitali<br>I am missing'
p827
I1
sS'here comes the day!!'
p828
I42
sS'14px; color: rgb(93, 93,'
p829
I368
sS'padding: 0px;"></span><span style="box-sizing: border-box;'
p830
I124
sS"you share what's your"
p831
I23
sS'way for healthier cells'
p832
I61
sS'share your updates,still waiting'
p833
I1
sS'/><br style="box-sizing: border-box; margin:'
p834
I1539
sS'liberally \r\nrelish jaggery-wheat based'
p835
I22
sS'<br>The weekend is loading!&nbsp;???\x9f&nbsp;<br><br>Which'
p836
I1
sS'snacking options for you-</span></div>\r\n<div><span'
p837
I2
sS'ones! Have a fabulous'
p838
I22
sS'quick solution to it'
p839
I30
sS'of the target steps'
p840
I2
sS'better day by day'
p841
I130
sS'believe in WILLPOWER! It'
p842
I44
sS'16.7999992370605px;">Can you share your'
p843
I1
sS'and feel re-energized and'
p844
I29
sS'are starving. So when'
p845
I46
sS"which explains that it's"
p846
I24
sS'/><span style="box-sizing: border-box; margin:'
p847
I620
sS'after finishing your workout????\x9f&nbsp;'
p848
I1
sS'are exploring the GOQii'
p849
I38
sS'your journey? Don,t forget'
p850
I1
sS'for sure help getting'
p851
I1
sS'display: inline !important; left:'
p852
I466
sS'Health Tip:Weekend time it'
p853
I19
sS'class="row text" style="box-sizing: border-box;'
p854
I663
sS'sans-serif;">*fruit yogurt with crushed'
p855
I2
sS'font-size: 14px; font-family: Roboto,'
p856
I7
sS'I am Tejal\r\nGupte, your'
p857
I1
sS'14px; line-height: 1.2;">how have'
p858
I5
sS'font-size: 14px; line-height: 16.7999992370605px;">how\'s'
p859
I5
sS'0px; padding: 0px; border:'
p860
I1564
sS'Roboto, sans-serif;">*fruit yogurt with'
p861
I2
sS'have us move further'
p862
I1
sS'Presentation, we will discuss\r\nthis'
p863
I1
sS'in the market tomorrow'
p864
I76
sS'to check out my'
p865
I9
sS'Ready for some mindful'
p866
I1
sS'center; font-size: 12px; line-height:'
p867
I314
sS'13.3333339691162px;">*at times you can'
p868
I1
sS'it difficult to hit'
p869
I51
sS'0px; padding: 0px; color:'
p870
I5277
sS'WILLPOWER! It is very'
p871
I44
sS'keep away from skin'
p872
I20
sS'new activity...Keep yourself full'
p873
I22
sS'glad\r\nto have you on'
p874
I1
sS'you like to share'
p875
I400
sS'Face" src="chrome-extension://cahedbegdkagmcjfolhdlechbkeaieki/images/apple/1f600.png" alt="????" /><br'
p876
I22
sS'GPRS rule in mind'
p877
I103
sS'line-height: 16.7999992370605px;">I eat my'
p878
I9
sS'2 grams of fiber'
p879
I186
sS'exciting journey at GOQii.'
p880
I101
sS'Roman&quot;;mso-bidi-font-family:Arial;\r\ncolor:#222222">&nbsp;<o:p></o:p></span></p>\r\n\r\n<p class="MsoNormal" style="margin-bottom: 0.0001pt;'
p881
I1
sS'today is the new'
p882
I1
sS'none; vertical-align: middle; max-width:'
p883
I301
sS'padding: 0px;">5. Fiber is'
p884
I2
sS"Heyo,Today's Health Tip:How important"
p885
I15
sS'familiarized by it. Well,'
p886
I7
sS'see you active here.&nbsp;</span><font'
p887
I1
sS'eat lots of optical'
p888
I1
sS'my new stuff and'
p889
I9
sS'14px; line-height: 16.7999992370605px;">Can you'
p890
I50
sS'workout.&nbsp;<br style="box-sizing: border-box; margin:'
p891
I10
sS'the BIG letters on'
p892
I177
sS', taking long walks'
p893
I19
sS'you been?&nbsp;</span><font color="#5d5d5d" face="Roboto,'
p894
I5
sS'll try my best'
p895
I48
sS'friends, a  part'
p896
I40
sS'you hit those targets'
p897
I41
sS'Hey Mitali,&nbsp;<span style="line-height: 1.2;'
p898
I1
sS'<img class="imageViewerInLarge" src="http://goqii-app.s3.amazonaws.com/user/user/s_1426740460.jpg" alt=""'
p899
I1
sS'Right Foods..which will make'
p900
I22
sS'Thus, enabling us to'
p901
I22
sS'cells and a happier'
p902
I61
sS'16.7999992370605px;"><br style="box-sizing: border-box; margin:'
p903
I1818
sS'in muscle growth and'
p904
I7
sS'what should I do'
p905
I9
sS'target steps for the'
p906
I1
sS'Would you like to'
p907
I645
sS'Roman&quot;;\r\nmso-bidi-font-family:Arial;color:#1155CC">http://bit.ly/1EAMpVQ</span></a><span style="font-family:&quot;Verdana&quot;,&quot;sans-serif&quot;;mso-fareast-font-family:&quot;Times New Roman&quot;;\r\nmso-bidi-font-family:Arial;color:#222222"><o:p></o:p></span></p>\r\n\r\n<p'
p908
I1
sS'source of antioxidants from'
p909
I1
sS'full power music to'
p910
I2
sS'While partying keep GPRS'
p911
I86
sS'Welcome to GOQii. Glad'
p912
I6
sS'it.. Thus, enabling us'
p913
I22
sS'let me know, I'
p914
I94
sS'the Lumia yet. Waiting'
p915
I1
sS"the new day. Let's"
p916
I1
sS'current lifestyle and routine.'
p917
I7
sS'style="font-family:&quot;Verdana&quot;,&quot;sans-serif&quot;;\r\nmso-fareast-font-family:&quot;Times New Roman&quot;;mso-bidi-font-family:Arial;\r\ncolor:#222222">To know'
p918
I1
sS'something I would like'
p919
I20
sS'something active-GET OUTSIDE'
p920
I38
sS'goals, and based on'
p921
I7
sS'initial;"><span style="font-family:&quot;Verdana&quot;,&quot;sans-serif&quot;;\r\nmso-fareast-font-family:&quot;Times New Roman&quot;;mso-bidi-font-family:Arial;\r\ncolor:#222222">Refer'
p922
I1
sS'Thanks for all your'
p923
I82
sS'ones\r\n to keep away'
p924
I1
sS'your goal is to'
p925
I70
sS"<div>Hey Mitali...What's up for"
p926
I1
sS'days\r\nincluding your current lifestyle'
p927
I1
sS'for all your support'
p928
I79
sS'14px; line-height: 16.7999992370605px;">&nbsp;I have'
p929
I41
sS'you have the best'
p930
I39
sS'rgb(255, 66, 66);"><div class="pull-right'
p931
I4
sS'transparent !important;" title="Grinning Face"'
p932
I50
sS'invaders (pollutants and other'
p933
I61
sS'at 6000 steps today?'
p934
I1
sS'from updating your data.<br>Please'
p935
I1
sS'sans-serif;">*whole wheat bread with'
p936
I2
sS'up over the next'
p937
I1
sS'font-size: 14px; line-height: 16.7999992370605px;">Do'
p938
I159
sS"in action!<br /><br />Let's"
p939
I1
sS'style="font-family:&quot;Verdana&quot;,&quot;sans-serif&quot;;\r\nmso-fareast-font-family:&quot;Times New Roman&quot;;mso-bidi-font-family:Arial;\r\ncolor:#222222"><o:p></o:p></span></p>\r\n\r\n<p class="MsoNormal"'
p940
I1
sS'initial;"><span style="font-family:&quot;Verdana&quot;,&quot;sans-serif&quot;;\r\nmso-fareast-font-family:&quot;Times New Roman&quot;;mso-bidi-font-family:Arial;\r\ncolor:#222222">I'
p941
I1
sS'steps for the day..good'
p942
I1
sS'16.7999992370605px;">Let\'s calculate the protein'
p943
I7
sS'Kishor,<br /><br />Waiting to'
p944
I1
sS'10)ORDER WELL while ordering'
p945
I38
sS'what buddy, every SMART'
p946
I99
sS'16.7999992370605px;"><span class="emoji emoji1f60a" style="box-sizing:'
p947
I14
sS'I have to say'
p948
I17
sS'font-family: Roboto, sans-serif; font-size:'
p949
I6986
sS'data-mce-src="http://goqii-app.s3.amazonaws.com/user/user/s_1424510585.jpg" style="box-sizing: border-box; margin:'
p950
I1
sS'relatives and friends, a'
p951
I76
sS'up for the Action?'
p952
I22
sS'see you back in'
p953
I122
sS"Player...What's up for today?"
p954
I12
sS'to keep away from'
p955
I21
sS'font-family: Roboto, sans-serif;">I have'
p956
I3
sS'you?</span></div>\r\n<span style="color: #5d5d5d; font-family:'
p957
I1
sS'your step counts since'
p958
I5
sS'spend on feeling physically'
p959
I117
sS'Kishor.<img src="http://goqii-app.s3.amazonaws.com/emoticons/smiley-laughing.gif" alt="" /><br'
p960
I1
sS'of good health. :)'
p961
I20
sS'toxic agents).. How necessary'
p962
I29
sS'proportional to delay in'
p963
I83
sS'do for portion control.'
p964
I1
sS'Great To Start,You have'
p965
I21
sS'14px; line-height: 16.7999992370605px;">&nbsp;</span><span style="box-sizing:'
p966
I24
sS'is very rightly said'
p967
I44
sS'for sure reply.Let that'
p968
I1
sS'ChillaBoiled Sprout chat /'
p969
I1
sS'0.0001pt; background-image: initial; background-attachment:'
p970
I57
sS'0px; padding: 0px;"></div><div style="box-sizing:'
p971
I901
sS'you are starving. So'
p972
I46
sS'achieve their goals. Since'
p973
I47
sS'lifestyle. I am extremely'
p974
I7
sS'about it, I feel'
p975
I1
sS'none !important; resize: none'
p976
I466
sS'a healthy lifestyle. I'
p977
I13
sS'Snacking optionsWhole wheat Grilled'
p978
I1
sS'GO HUNGRY to a'
p979
I56
sS'add those nasty colouring'
p980
I24
sS'padding: 0px; line-height: 16.7999992370605px;"><span'
p981
I48
sS'issues which is preventing'
p982
I3
sS'Don,t forget to do'
p983
I1
sS'but add tremendous value'
p984
I24
sS'Roboto, sans-serif; font-size: 12px;'
p985
I316
sS'your loved ones, make'
p986
I41
sS'plan out our goals'
p987
I49
sS'a party  5)Schedule'
p988
I16
sS"am sure it's gonna"
p989
I59
sS'Good to see your'
p990
I211
sS'Buddy  10 Tips'
p991
I16
sS'GOAL.. It would be'
p992
I22
sS'letters on the Nutrition'
p993
I171
sS'0px;">2. The FIRST ingredient'
p994
I2
sS'for a healthier you!&nbsp;<img'
p995
I2
sS'nutrition label that would'
p996
I37
sS'sound good to you?</span></div>\r\n<span'
p997
I1
sS'colorful fruits or some'
p998
I29
sS'believe you are using'
p999
I36
sS'20 minutes call and'
p1000
I7
sS'going with our goal?<br>'
p1001
I1
sS'body weight and check'
p1002
I7
sS'sans-serif;">*roasted makhanas</span></div>\r\n<div><span style="color: #5d5d5d;'
p1003
I2
sS'1.2;">how have you been?&nbsp;</span><font'
p1004
I5
sS'goal. I would love'
p1005
I12
sS'burning calories as you'
p1006
I46
sS'style="font-size: 14px; line-height: 16.7999992370605px;">????</span></font>'
p1007
I1
sS'#5d5d5d; font-family: Roboto, sans-serif;">*whole'
p1008
I2
sS'schedule a 20 minutes'
p1009
I153
sS'font-size: 13.3333339691162px;" /><span style="box-sizing:'
p1010
I1
sS'us to work together'
p1011
I25
sS'activity! ;)'
p1012
I12
sS'width: 814.875px;"><div class="row text"'
p1013
I286
sS'New Roman&quot;;mso-bidi-font-family:Arial;\r\ncolor:#222222">Refer to this'
p1014
I1
sS'preventing you from getting'
p1015
I1
sS'be Start to be'
p1016
I21
sS'you from getting active'
p1017
I1
sS'Roboto, sans-serif; font-size: 13.3333339691162px;">*fruit'
p1018
I1
sS'great Willpower too. :)'
p1019
I44
sS'some amazing numbers are'
p1020
I1
sS'constantly working towards a'
p1021
I93
sS'href="http://bit.ly/1smgaiI" target="_blank"><span style="font-family:&quot;Verdana&quot;,&quot;sans-serif&quot;;\r\nmso-fareast-font-family:&quot;Times New'
p1022
I1
sS'Find some time to'
p1023
I22
sS'analyze it.. Thus, enabling'
p1024
I22
sS'facing any obstacles that'
p1025
I1
sS'When you skip meals,'
p1026
I46
sS'font-family: Roboto, sans-serif;">*roasted chickpeas'
p1027
I2
sS'those targets consistently. #betheforce'
p1028
I35
sS'7)Get enough SLEEP'
p1029
I38
sS'eat...the amount of water'
p1030
I57
sS'your body with crap!<br'
p1031
I8
sS'sure you stay \r\nmindful'
p1032
I21
sS'5)Schedule some RELAXATION'
p1033
I38
sS'feeling physically better through'
p1034
I117
sS'perfect, just aim to'
p1035
I25
sS'with you these days'
p1036
I52
sS'the week Kishor.<img src="http://goqii-app.s3.amazonaws.com/emoticons/smiley-laughing.gif"'
p1037
I1
sS'/><br />Did circuit today.&nbsp;'
p1038
I1
sS'be a positive or'
p1039
I1
sS'change your time zone'
p1040
I1
sS'in month of April,here'
p1041
I3
sS'still lapping everybody on'
p1042
I20
sS'calculate the protein requirement'
p1043
I122
sS"We'll be better day"
p1044
I104
sS'supply of the most'
p1045
I7
sS'these days and I'
p1046
I44
sS'today is to atleast'
p1047
I1
sS'best of time with'
p1048
I41
sS'sugar, the product is'
p1049
I180
sS"( example: children's cereal"
p1050
I151
sS'has been a drop'
p1051
I2
sS'!important;"></span></span></font><div class="row date-box" style="box-sizing:'
p1052
I6
sS'the external invaders (pollutants'
p1053
I61
sS'always the BIGGEST! ('
p1054
I163
sS'chanas with chopped veggies</span></div>\r\n<div><span'
p1055
I2
sS'I would love to'
p1056
I1080
sS'Tip:Rather than aiming to'
p1057
I25
sS'border: 0px; vertical-align: middle;'
p1058
I1533
sS"Here's something I would"
p1059
I20
sS"stuff and you'll know"
p1060
I9
sS'Health Tip:Rather than aiming'
p1061
I25
sS'to a party'
p1062
I71
sS'me a target, to'
p1063
I1
sS'even sleep will be'
p1064
I115
sS"you do. Thus, it's"
p1065
I57
sS'nasty colouring agents to'
p1066
I24
sS'with crushed nuts</span><br style="box-sizing:'
p1067
I1
sS'Start,You have to be'
p1068
I21
sS'get it kick-started by'
p1069
I167
sS'part of the GOQii'
p1070
I79
sS'be Great To Start,You'
p1071
I21
sS'Roboto, sans-serif;">weekend is the'
p1072
I1
sS'steps.<o:p></o:p></span></p>\r\n\r\n<p class="MsoNormal" style="margin-bottom: 0.0001pt;'
p1073
I1
sS'rgb(93, 93, 93); line-height:'
p1074
I372
sS'bread with peanut butter</span><br'
p1075
I1
sS'and we can plan'
p1076
I49
sS'16.7999992370605px;">When do we resume?&nbsp;</span>'
p1077
I5
sS'of time with your'
p1078
I42
sS'paneer pieces\r\n<div><br />A fistful'
p1079
I1
sS'relative !important; opacity: 1'
p1080
I466
sS'out if your body'
p1081
I7
sS'interval training, which explains'
p1082
I24
sS'check out my new'
p1083
I9
sS'your nutrition (food and'
p1084
I295
sS'to have u as'
p1085
I2
sS'time  6)Do something'
p1086
I16
sS'Hello, Good Morning! Here'
p1087
I100
sS'sure you have a'
p1088
I137
sS'wheat grilled veggie sandwich</span></div>\r\n<div><span'
p1089
I2
sS'them to lead a'
p1090
I80
sS'us to connect. &nbsp;</span><br'
p1091
I1
sS'playing out door games,'
p1092
I19
sS'Hey Mitali,<br><br>As per laast'
p1093
I1
sS'you ask me today'
p1094
I1
sS'may not see results'
p1095
I106
sS'breakfast its very good'
p1096
I1
sS'Dancing is fun, it'
p1097
I12
sS'fruits and nuts (almonds,'
p1098
I3
sS'height: 1.2em !important; display:'
p1099
I153
sS'rule in mind and'
p1100
I99
sS"Player,Today's Health Tip:Rather than"
p1101
I25
sS'alone or with someone'
p1102
I1
sS'Keep me posted. :)'
p1103
I22
sS'!important; opacity: 1 !important;'
p1104
I466
sS'Facts label and ingredient'
p1105
I171
sS'towards a better self?</div><div><br></div><div>Why'
p1106
I9
sS'your current workout status?</span>'
p1107
I1
sS'discuss\r\nthis on our call.&nbsp;</span><a'
p1108
I1
sS'they sound good to'
p1109
I2
sS'walks with friends ,'
p1110
I19
sS'Hi Mitali!&nbsp;<br /><br />Glad'
p1111
I1
sS'Hi Satish,<span style="color: rgb(93,'
p1112
I2
sS'toned body keeping the'
p1113
I7
sS'know the the most'
p1114
I153
sS'several other benefits too!'
p1115
I12
sS'Gupta, A GOQii Life'
p1116
I50
sS'chopped fruits and nuts'
p1117
I3
sS'border-box; margin: 0px; padding:'
p1118
I6171
sS'you on board.<o:p></o:p></span></p>\r\n\r\n<p class="MsoNormal"'
p1119
I1
sS'us have a toned'
p1120
I125
sS'0px; padding: 0px;"><br style="box-sizing:'
p1121
I727
sS'us with natural colourful'
p1122
I19
sS'time and date for'
p1123
I295
sS'sweets! If you plan&nbsp;'
p1124
I14
sS'to music ....<br>How about'
p1125
I1
sS'and not the Quantity'
p1126
I24
sS'be a little better'
p1127
I90
sS'decode the nutrition label'
p1128
I37
sS'0px; padding: 0px;">3. Avoid'
p1129
I2
sS'0em !important; padding: 0em'
p1130
I461
sS'protein demand of your'
p1131
I7
sS'<p><img src="http://goqii-app.s3.amazonaws.com/emoticons/smiley-laughing.gif" alt="" /></p>'
p1132
I1
sS'your activity plan for'
p1133
I4
sS'have an interesting stuff'
p1134
I175
sS'taking a positive step'
p1135
I7
sS'fitness activity) and sleep.<o:p></o:p></span></p>\r\n\r\n<p'
p1136
I2
sS'reply.Let that be a'
p1137
I1
sS'initial; background-repeat: initial;"><span style="font-family:&quot;Verdana&quot;,&quot;sans-serif&quot;;mso-fareast-font-family:&quot;Times'
p1138
I1
sS'gifted us with natural'
p1139
I19
sS'Hi Mitali,<span style="color: rgb(93,'
p1140
I2
sS'from putting on bad'
p1141
I171
sS'font-size: 13.3333339691162px;">*whole wheat grilled'
p1142
I1
sS'line-height: 1.2;"><div class="row control-group"'
p1143
I25
sS'help you set up'
p1144
I170
sS'66); font-family: Roboto, sans-serif;"></div>'
p1145
I255
sS'Roman&quot;;\r\nmso-bidi-font-family:Arial;color:#222222">Once we have more'
p1146
I1
sS'and date for us'
p1147
I206
sS'background-image: url(http://coach.goqii.com/webApp/css-img/emoji.png?v=0.2.2) !important;"></span></span></font><div class="row'
p1148
I6
sS'salads.&nbsp;<img class="chromoji" style="box-sizing: border-box;'
p1149
I1
sS'margin: 0px; padding: 0px;">Make'
p1150
I1
sS'waiting to hear from'
p1151
I555
sS'your intake is meeting'
p1152
I7
sS'Hi Mitali<br>Are you going'
p1153
I1
sS"Power! Let's Get Going!!!"
p1154
I167
sS'activity) and sleep.<o:p></o:p></span></p>\r\n\r\n<p class="MsoNormal"'
p1155
I2
sS'Hiiiii Mitali????&nbsp;<br>How was your'
p1156
I1
sS'100%; height: auto;"></div></div></div></div><div class="row'
p1157
I1
sS'How about targeting at'
p1158
I1
sS'font-family: Roboto, sans-serif;">*at times'
p1159
I2
sS'poli and other jaggery'
p1160
I30
sS'Dance!! Not just because'
p1161
I12
sS'lifestyle we can schedule'
p1162
I154
sS'go,you are still lapping'
p1163
I20
sS'seeing others achieve their'
p1164
I64
sS'font-size: 14px; line-height: 16.7999992370605px;">Check'
p1165
I66
sS'style="font-family:&quot;Verdana&quot;,&quot;sans-serif&quot;;\r\nmso-fareast-font-family:&quot;Times New Roman&quot;;mso-bidi-font-family:Arial;\r\ncolor:#222222">I look'
p1166
I1
sS'protect your body cells'
p1167
I62
sS'16.7999992370605px;">PROTEIN.</strong><div style="box-sizing: border-box; margin:'
p1168
I7
sS'16.7999992370605px;">If we are, then'
p1169
I1
sS'Let us try today'
p1170
I1
sS'I delete my vishalgondal@hotmail.com'
p1171
I1
sS'line-height: 16.7999992370605px;">&nbsp;sometimes inspiration comes'
p1172
I2
sS'0px; padding: 0px;">5. Fiber'
p1173
I2
sS'makes these new cells'
p1174
I63
sS'a healthier lifestyle. :)'
p1175
I28
sS'kuthe distey.partial or missing'
p1176
I1
sS'body stores away more'
p1177
I46
sS'padding: 0px; background-image: url(http://coach.goqii.com/webApp/css-img/emoji.png?v=0.2.2)'
p1178
I639
sS'rgb(255, 66, 66); font-family:'
p1179
I281
sS'I would like to'
p1180
I2178
sS'line-height: 16.7999992370605px;">how\'s it going?</span><br'
p1181
I4
sS'Special Member of the'
p1182
I76
sS'16.7999992370605px;"><span style="box-sizing: border-box; margin:'
p1183
I677
sS'help you excel in'
p1184
I46
sS'src="http://goqii-app.s3.amazonaws.com/emoticons/smiley-laughing.gif" alt="" /><br /><br'
p1185
I676
sS'18px; line-height: 21.6000003814697px;">How\'s your'
p1186
I3
sS'to see your Karma'
p1187
I3
sS"/><br />Let's get regular"
p1188
I2
sS'benefits too!'
p1189
I13
sS'with the Right Foods..which'
p1190
I22
sS'get it started..Our target'
p1191
I1
sS'you are not facing'
p1192
I55
sS'/><br /><br />I would'
p1193
I41
sS'float: right;"><br style="box-sizing: border-box;'
p1194
I3
sS'13.3333339691162px;">*roasted chickpeas or soy'
p1195
I1
sS'for you-</span><br style="box-sizing: border-box;'
p1196
I1
sS'I would love if'
p1197
I64
sS'getting sync wt app'
p1198
I1
sS'sans-serif;"></span><span style="color: rgb(93, 93,'
p1199
I1
sS'water log as well,'
p1200
I4
sS'get active, I want'
p1201
I58
sS'watch this video:&nbsp;</span><a href="http://bit.ly/1smgaiI"'
p1202
I2
sS'GOQii App, i.e. your'
p1203
I251
sS"we aren't moving in"
p1204
I68
sS'/>I stared going to'
p1205
I1
sS'padding: 0px; float: right;"><br'
p1206
I8
sS'make sure you hit'
p1207
I70
sS'\r\nlegs moving Run, dance'
p1208
I1
sS'and water),\r\nfitness (steps counts'
p1209
I2
sS'0in 0.0001pt; background-image: initial;'
p1210
I1
sS'Mitali,<span style="color: rgb(93, 93,'
p1211
I2
sS'product is made up'
p1212
I186
sS"and you'll know the"
p1213
I24
sS'initial; background-size: initial; background-origin:'
p1214
I727
sS'14px; line-height: 1.2; font-family:'
p1215
I42
sS"it's gonna get even"
p1216
I42
sS'long walks with friends'
p1217
I19
sS'corn syrup on the'
p1218
I186
sS'2 fruits did you'
p1219
I2
sS'is directly proportional to'
p1220
I75
sS'date for us to'
p1221
I207
sS'them together and you'
p1222
I42
sS'Well, as we start'
p1223
I7
sS'font-size: 14px; line-height: 16.7999992370605px;"><br'
p1224
I1793
sS"action!<br /><br />Let's get"
p1225
I1
sS'not the least, keep'
p1226
I38
sS'16.7999992370605px;">How have you planned'
p1227
I4
sS'sound good to you?'
p1228
I6
sS'Grab some colorful fruits'
p1229
I61
sS'Member of the GOQii'
p1230
I76
sS'choice while purchasing the'
p1231
I37
sS'in your step counts'
p1232
I20
sS'66); font-family: Roboto, sans-serif;"></div><div><span'
p1233
I5
sS'font-size: 13.3333339691162px;">*roasted chickpeas or'
p1234
I1
sS'always some amazing numbers'
p1235
I1
sS'0px;"></div><div style="box-sizing: border-box; margin:'
p1236
I901
sS'Matter how slow you'
p1237
I20
sS'and nuts (almonds, walnuts)&nbsp;Roasted'
p1238
I1
sS"2 days.. What's the"
p1239
I1
sS'Shimpli. .How are you'
p1240
I1
sS'routine. To begin with,'
p1241
I7
sS"Player... Here's a health"
p1242
I25
sS'you??&nbsp;</div>\r\n<div style="box-sizing: border-box; margin:'
p1243
I7
sS'we constantly working towards'
p1244
I90
sS'the GOQii band with'
p1245
I196
sS'you start syncing the'
p1246
I23
sS'resolved and see you'
p1247
I1
sS'amount of water you'
p1248
I67
sS'93, 93); line-height: 1.2;"><br'
p1249
I11
sS'nutrition and even sleep'
p1250
I117
sS'font-size: 13.3333339691162px;">*at times you'
p1251
I1
sS'great you have already'
p1252
I1
sS'major role in muscle'
p1253
I7
sS'application.</span><br style="box-sizing: border-box; margin:'
p1254
I3
sS'through the Beta Phase.'
p1255
I26
sS'replaces itself. Your liver,'
p1256
I57
sS'not facing any band/app'
p1257
I1
sS'cells.. and feel re-energized'
p1258
I29
sS'14px; line-height: 16.7999992370605px;">We need'
p1259
I15
sS'28 days, your skin'
p1260
I57
sS'your body cells from'
p1261
I62
sS'buddy... every minute you'
p1262
I45
sS'about targeting at 6000'
p1263
I1
sS'journey at GOQii. Be'
p1264
I7
sS'May 15, 2014. So'
p1265
I40
sS'out if your intake'
p1266
I7
sS'meals, your body metabolism'
p1267
I46
sS'even more exciting as'
p1268
I42
sS'padding: 0px;">Make a healthier'
p1269
I1
sS'#5d5d5d; font-family: Roboto, sans-serif;">I'
p1270
I2
sS'54, 54); font-size: 12px;'
p1271
I45
sS'chatting through phone or'
p1272
I1
sS'I replied positive.So if'
p1273
I1
sS'work together to make'
p1274
I75
sS'the package. Look for'
p1275
I144
sS'band/app related issues which'
p1276
I1
sS'chaat</span></div>\r\n<div><span style="color: #5d5d5d; font-family:'
p1277
I2
sS'our GOQii App, i.e.'
p1278
I245
sS'out for the day'
p1279
I61
sS'got a kingdom of'
p1280
I60
sS'can schedule a 20'
p1281
I181
sS'like to announce that'
p1282
I76
sS'target for today is'
p1283
I3
sS'initial; background-repeat: initial;"><span style="font-family:&quot;Verdana&quot;,&quot;sans-serif&quot;;\r\nmso-fareast-font-family:&quot;Times'
p1284
I1
sS'some crunchy salads everyday..'
p1285
I61
sS'14px; line-height: 16.7999992370605px;"><br style="box-sizing:'
p1286
I1744
sS'!important; top: 0.25em !important;'
p1287
I427
sS'WOW!!&nbsp;???\x9f Missed meeting you'
p1288
I1
sS'would like to announce'
p1289
I76
sS'you have a great'
p1290
I225
sS'options for you-</span></div>\r\n<div><span style="color:'
p1291
I2
sS'us move further with'
p1292
I1
sS'1424530472" style="box-sizing: border-box; margin:'
p1293
I1
sS'user with whom I'
p1294
I9
sS'In fact, Everybody should'
p1295
I12
sS'sure help getting it'
p1296
I1
sS'sans-serif;">*boiled black chanas with'
p1297
I2
sS'inspiration comes from seeing'
p1298
I66
sS'Roman&quot;;mso-bidi-font-family:Arial;\r\ncolor:#222222"><o:p></o:p></span></p>\r\n\r\n<p class="MsoNormal" style="margin-bottom: 0.0001pt;'
p1299
I1
sS'font-size: 13.3333339691162px;">I have listed'
p1300
I1
sS'its great you have'
p1301
I1
sS'is affecting you in'
p1302
I106
sS'chickpeas or soy nuts</span><br'
p1303
I1
sS"Hey player.. Here's something"
p1304
I20
sS'help you EXCEL in'
p1305
I11
sS'besan ChillaBoiled Sprout chat'
p1306
I1
sS'can save yourself from'
p1307
I171
sS'a later date. Are'
p1308
I11
sS'Gear up for the'
p1309
I28
sS'lined up over the'
p1310
I1
sS'21.6000003814697px;">Relishing your favorite food/relaxing/travelling/meeting'
p1311
I3
sS'right; width: 814.875px;"><div class="row'
p1312
I287
sS'U-turn right away!!&nbsp;</span><br style="box-sizing:'
p1313
I1
sS"Here's what I"
p1314
I12
sS'would love if you'
p1315
I59
sS'been emphasizing on the'
p1316
I24
sS'16.7999992370605px;"><span style="color: rgb(93, 93,'
p1317
I747
sS'are walking sessions going??????\x9f&nbsp;'
p1318
I1
sS'0px; padding: 0px;">4. Avoid'
p1319
I2
sS'for you-</span></div>\r\n<div><span style="color: #5d5d5d;'
p1320
I2
sS'Satish,<span style="color: rgb(93, 93,'
p1321
I3
sS'1.2; color: rgb(93, 93,'
p1322
I3
sS'I do for portion'
p1323
I1
sS'padding: 0px; width: 300px;'
p1324
I472
sS"cool breakfast...???\x9f&nbsp;<br>So what's your"
p1325
I1
sS'with colours, choose the'
p1326
I40
sS"It's been great engaging"
p1327
I42
sS'we spend on feeling'
p1328
I26
sS'worry if you are'
p1329
I51
sS'chutney or sambhar.</span></div>\r\n<div><span style="color:'
p1330
I2
sS'over a call to'
p1331
I254
sS'minute you spend on'
p1332
I92
sS'music to get the'
p1333
I2
sS'#5d5d5d; font-family: Roboto, sans-serif;">*boiled'
p1334
I2
sS'EXCEL in this!!! :)'
p1335
I11
sS'font-size: 14px; line-height: 16.7999992370605px;">How'
p1336
I521
sS'a fabulous weekend buddy!'
p1337
I22
sS'not getting sync wt'
p1338
I1
sS'about my All time'
p1339
I12
sS'your Karma point Donation'
p1340
I2
sS'ordering out  HAVE'
p1341
I16
sS'your targets consistently! When'
p1342
I22
sS'to see your band'
p1343
I35
sS'not burning calories as'
p1344
I46
sS'even have idli/dosa with'
p1345
I3
sS"ways you'd never imagine!!"
p1346
I104
sS'start of the week'
p1347
I33
sS'to be perfect, we'
p1348
I65
sS'app calling at 11am.'
p1349
I1
sS'style="box-sizing: border-box; margin: 0px;'
p1350
I6136
sS'correct choice while purchasing'
p1351
I37
sS'14px; line-height: 16.7999992370605px;">,&nbsp;</span><span style="box-sizing:'
p1352
I1
sS'more about you for'
p1353
I7
sS'can now make your'
p1354
I76
sS'right away!!&nbsp;</span><br style="box-sizing: border-box;'
p1355
I1
sS'at GOQii. Be the'
p1356
I7
sS'our journey, I\r\nas your'
p1357
I1
sS'share it with me.'
p1358
I49
sS'#5d5d5d; font-family: Roboto, sans-serif;'
p1359
I3112
sS'CHOICE you make is'
p1360
I103
sS'seeds and sunflower seedsCorn'
p1361
I1
sS'help you make a'
p1362
I45
sS'font-size: 13.3333339691162px;">*roasted makhanas</span><br style="box-sizing:'
p1363
I1
sS'ingredient on the list'
p1364
I187
sS'start updating\r\nyour daily routine'
p1365
I3
sS'in app calling is'
p1366
I1
sS'peanut butter</span></div>\r\n<div><span style="color: #5d5d5d;'
p1367
I2
sS'the food.<br style="box-sizing: border-box;'
p1368
I1
sS'updating\r\nyour daily routine via'
p1369
I3
sS'line-height: 16.7999992370605px;">When do we'
p1370
I5
sS'will make it easier'
p1371
I25
sS'max-width: 100%; height: auto;"></div></div></div></div><div'
p1372
I1
sS'64px !important; height: 1.2em'
p1373
I153
sS'from skin irritation. Last'
p1374
I32
sS'GOQii goes live in'
p1375
I76
sS'!important; left: 0px !important;'
p1376
I466
sS'veggie sandwich</span></div>\r\n<div><span style="color: #5d5d5d;'
p1377
I2
sS'per laast update in'
p1378
I1
sS'by it. Well, as'
p1379
I7
sS'the physical activity that'
p1380
I57
sS'offer to stay healthy.Your'
p1381
I4
sS'going with activity Satish!<br'
p1382
I1
sS'16.7999992370605px;">Proteins play a major'
p1383
I7
sS'to learn, you just'
p1384
I171
sS'today preferably&nbsp; during the'
p1385
I1
sS'have worked towards achieving'
p1386
I9
sS'see your Karma point'
p1387
I3
sS"what's your activity plan"
p1388
I1
sS'with your bare hands,'
p1389
I44
sS'padding: 0px;"><br style="box-sizing: border-box;'
p1390
I727
sS'or besan ChillaBoiled Sprout'
p1391
I1
sS'on the front of'
p1392
I186
sS'we start our journey,'
p1393
I8
sS'SUNDAY be productive'
p1394
I38
sS"Mitali...What's up for today?"
p1395
I1
sS'in the workouts is'
p1396
I70
sS'font-size: 14px; line-height: 16.7999992370605px;"><span'
p1397
I1329
sS'active, I want to'
p1398
I52
sS'with me. I will'
p1399
I8
sS'are still lapping everybody'
p1400
I20
sS'I would be glad'
p1401
I229
sS'13.3333339691162px;">*whole wheat grilled veggie'
p1402
I1
sS'if you ask me'
p1403
I11
sS'of fiber per serving'
p1404
I186
sS'obstacles that are preventing'
p1405
I1
sS'we try in app'
p1406
I1
sS'friends , roaming about'
p1407
I19
sS'to have you on'
p1408
I629
sS'the reason why I'
p1409
I27
sS'it, I feel accountable'
p1410
I1
sS'Gym.&nbsp;<br /><br />Did circuit'
p1411
I1
sS'on interval training, which'
p1412
I24
sS'alt="????" /><br style="box-sizing: border-box;'
p1413
I30
sS'emphasizing on the intake'
p1414
I24
sS'usual resulting in more'
p1415
I27
sS'sandwich</span><br style="box-sizing: border-box; margin:'
p1416
I1
sS'family, relatives and friends,'
p1417
I76
sS'fruits did you have'
p1418
I11
sS'months. Your bones, 10'
p1419
I57
sS'helps us have a'
p1420
I7
sS'now make your family,'
p1421
I76
sS'check out if your'
p1422
I7
sS'style="font-family:&quot;Verdana&quot;,&quot;sans-serif&quot;;\r\nmso-fareast-font-family:&quot;Times New Roman&quot;;mso-bidi-font-family:Arial;\r\ncolor:#1155CC">http://bit.ly/1smgaiI</span></a><span style="font-family:&quot;Verdana&quot;,&quot;sans-serif&quot;;\r\nmso-fareast-font-family:&quot;Times'
p1423
I1
sS'for our walks alone'
p1424
I1
sS'position: relative !important; opacity:'
p1425
I466
sS'Everybody should Dance!! Not'
p1426
I12
sS'bar into four pieces'
p1427
I44
sS'comes from seeing others'
p1428
I66
sS'sans-serif; font-size: 12px; line-height:'
p1429
I318
sS'bare hands, and just'
p1430
I44
sS'yet. Waiting for the'
p1431
I1
sS'also help you set'
p1432
I6
sS'indulge in shopping!</span><div class="row'
p1433
I1
sS'the target steps for'
p1434
I1
sS'to break a chocolate'
p1435
I44
sS'right;"><br style="box-sizing: border-box; margin:'
p1436
I3
sS'16.7999992370605px;">I believe you are'
p1437
I4
sS'share with you today-'
p1438
I18
sS'cereals, granola bars, crackers'
p1439
I186
sS'and swirl all over.'
p1440
I2
sS'line-height: 16.7999992370605px;">You must be'
p1441
I1
sS'resize: none !important; top:'
p1442
I466
sS'towards a healthy lifestyle.'
p1443
I46
sS'healthier choice, for a'
p1444
I37
sS'immense pleasure and excitement,'
p1445
I76
sS'you share your current'
p1446
I3
sS'style="font-family:&quot;Verdana&quot;,&quot;sans-serif&quot;;mso-fareast-font-family:&quot;Times New Roman&quot;;\r\nmso-bidi-font-family:Arial;color:#222222">Welcome to'
p1447
I1
sS'challenge you, it doesn\x83??t'
p1448
I33
sS'weight or polluting your'
p1449
I171
sS'goal is to get'
p1450
I66
sS'margin: 0px; padding: 0px;"></div></div></div></div></div><div'
p1451
I3
sS'make it easier for'
p1452
I26
sS"Mitali<br>How's it going with"
p1453
I1
sS'<p>Dips</p>\r\n<p>We missed on follow'
p1454
I1
sS'more information about\r\nyour lifestyle'
p1455
I1
sS'should be ( example:'
p1456
I151
sS'do some stretches to'
p1457
I1
sS'float: none !important; visibility:'
p1458
I466
sS'/>A fistful of dryfruits'
p1459
I2
sS'family and encourage them'
p1460
I63
sS'for a GOQii Presentation,'
p1461
I322
sS'the food you eat...the'
p1462
I57
sS'margin: 0px 0px 8px;'
p1463
I351
sS'14px; line-height: 16.7999992370605px;">Hey &nbsp;Satish,'
p1464
I1
sS'font-family: Roboto, sans-serif;">&nbsp;</span></div>\r\n<div><span style="color:'
p1465
I2
sS'love to connect with'
p1466
I207
sS'with you for an'
p1467
I199
sS'is to atleast reach'
p1468
I1
sS"Hey buddy.. Let's start"
p1469
I16
sS'whole grain impostors. Choose'
p1470
I51
sS'already reached your half'
p1471
I1
sS'font-size: 18px; line-height: 21.6000003814697px;">Relishing'
p1472
I3
sS'the more suspicious you'
p1473
I186
sS'add tremendous value to'
p1474
I24
sS'8)Prepare for the WEEK'
p1475
I38
sS'here.&nbsp;</span><font color="#5d5d5d" face="Roboto, sans-serif"><span'
p1476
I1
sS'I am sure you'
p1477
I1858
sS'with activity Satish!<br /><br'
p1478
I1
sS'the band data.. The'
p1479
I22
sS'sans-serif; font-size: 18px; line-height:'
p1480
I2256
sS'you can even have'
p1481
I3
sS'figure out if your'
p1482
I7
sS'a Special Member of'
p1483
I76
sS'<span style="box-sizing: border-box; margin:'
p1484
I2167
sS'you should. Your body'
p1485
I46
sS'Hey!&nbsp;<span style="color: rgb(93, 93,'
p1486
I1
sS'Hey buddy... every minute'
p1487
I45
sS'on our call.&nbsp;</span><a href="http://bit.ly/1EAMpVQ"'
p1488
I1
sS'veggies</span></div>\r\n<div><span style="color: #5d5d5d; font-family:'
p1489
I2
sS'try in app calling'
p1490
I1
sS'earlier, the formal coaching'
p1491
I42
sS'offered to you. You'
p1492
I33
sS'style="box-sizing: border-box; margin: 0em'
p1493
I299
sS'which I replied positive.So'
p1494
I1
sS'Roboto, sans-serif;">would like to'
p1495
I1
sS'working towards a better'
p1496
I92
sS'like to hear from'
p1497
I13
sS'4)DONT GO HUNGRY'
p1498
I38
sS'a few evening snacking'
p1499
I3
sS'better through exercise, stretching,'
p1500
I117
sS'exercise, stretching, nutrition and'
p1501
I117
sS'text-align: center; font-size: 12px;'
p1502
I314
sS'float: right; width: 814.875px;"><div'
p1503
I289
sS'Roman&quot;;mso-bidi-font-family:Arial;\r\ncolor:#222222">To know more about'
p1504
I1
sS'you....Exercise is a king,'
p1505
I20
sS'healthy lifestyle. I am'
p1506
I7
sS'Hi Mitali,<br><br>How are you'
p1507
I1
sS'line-height: 21.6000003814697px;" /><br style="box-sizing:'
p1508
I530
sS'wheat bread with peanut'
p1509
I3
sS'padding: 0px;">It\'s easy to'
p1510
I1
sS'background-attachment: initial; background-size: initial;'
p1511
I727
sS'to you. You can'
p1512
I34
sS"Energy and Power! Let's"
p1513
I167
sS'to get active, I'
p1514
I58
sS'makhanas</span><br style="box-sizing: border-box; margin:'
p1515
I1
sS"Superr. I'm sure you"
p1516
I1
sS'from the food you'
p1517
I63
sS'super markets and indulge'
p1518
I32
sS"you'd never imagine!! So"
p1519
I94
sS'fistful of dryfruits (dates,'
p1520
I2
sS'out  HAVE A'
p1521
I16
sS'All time favourite activity!'
p1522
I12
sS'with me through user'
p1523
I1
sS'New Roman&quot;;mso-bidi-font-family:Arial;\r\ncolor:#1155CC">http://bit.ly/1smgaiI</span></a><span style="font-family:&quot;Verdana&quot;,&quot;sans-serif&quot;;\r\nmso-fareast-font-family:&quot;Times New'
p1524
I1
sS'process.. I would be'
p1525
I52
sS'a new activity...Keep yourself'
p1526
I22
sS'nutsMoong or besan ChillaBoiled'
p1527
I1
sS'!important; display: inline !important;'
p1528
I467
sS'Today no Gym :('
p1529
I1
sS'I\r\nas your coach would'
p1530
I1
sS'some processed and packaged'
p1531
I37
sS'data.<br>Please do let me'
p1532
I1
sS'padding: 0px; float: right;'
p1533
I577
sS'line-height: 24.0000019073486px;">Do they sound'
p1534
I1
sS'the sound good to'
p1535
I1
sS'sans-serif"><span style="font-size: 14px; line-height:'
p1536
I33
sS'rejuvenate the cells.. and'
p1537
I29
sS'have u as my'
p1538
I2
sS'keep GPRS rule in'
p1539
I101
sS'morning Player! Rather than'
p1540
I38
sS'front of the package.'
p1541
I145
sS'the small letters on'
p1542
I180
sS'\r\nbased sweets! If you'
p1543
I1
sS'extremely glad\r\nto have you'
p1544
I1
sS'is a king, nutrition'
p1545
I42
sS'your target. If it'
p1546
I42
sS'as we go ahead.'
p1547
I42
sS'54); font-family: Roboto, sans-serif;'
p1548
I298
sS'the active mode.</span><br style="box-sizing:'
p1549
I3
sS'be glad to see'
p1550
I61
sS'body.&nbsp;</div><div style="box-sizing: border-box; margin:'
p1551
I7
sS'you have got a'
p1552
I70
sS'0px 8px; padding: 0px;'
p1553
I351
sS'it resolved and see'
p1554
I1
sS'Colours, which not only'
p1555
I24
sS'you EXCEL in this!!!'
p1556
I11
sS'games, dancing , taking'
p1557
I19
sS'fill you up with'
p1558
I167
sS'syncing the band data..'
p1559
I22
sS'you hit your targets'
p1560
I25
sS'head out for the'
p1561
I57
sS'Moreover, you can now'
p1562
I76
sS'I feel accountable and'
p1563
I1
sS'u as my coach'
p1564
I19
sS'hold on! Learn some'
p1565
I37
sS'<span style="color: rgb(85, 85,'
p1566
I41
sS'is to protect your'
p1567
I29
sS'part of the'
p1568
I234
sS'GOQii. Glad to have'
p1569
I8
sS'it doesn\x83??t change you.'
p1570
I33
sS'today Mitra!!&nbsp;<br><br>Eager to see'
p1571
I1
sS'up mostly of sugar)</div><div'
p1572
I17
sS'do let me know,'
p1573
I37
sS'replied positive.So if you'
p1574
I1
sS'to get it resolved'
p1575
I4
sS'on the intake of'
p1576
I24
sS"share what's your current"
p1577
I23
sS'steps and sleep data'
p1578
I1
sS"week!! Let's get it"
p1579
I105
sS'a Healthy weekend'
p1580
I56
sS'you eat again, your'
p1581
I46
sS'hope you are not'
p1582
I68
sS'Try a new activity...Keep'
p1583
I22
sS'comes the extension period'
p1584
I5
sS'to you at a'
p1585
I104
sS'class="MsoNormal" style="margin-bottom: 0.0001pt; background-image:'
p1586
I39
sS'call to take you'
p1587
I215
sS'you can save yourself'
p1588
I171
sS'you from updating your'
p1589
I16
sS'3)Eat like you do'
p1590
I38
sS'up baby.</p>\r\n<p>On Saturday, you'
p1591
I1
sS'least 2 grams of'
p1592
I186
sS'you. You can liberally'
p1593
I33
sS'your skin replaces itself.'
p1594
I63
sS'could work together to'
p1595
I49
sS'up for today? I'
p1596
I13
sS'0px; padding: 0px;" />Why'
p1597
I7
sS'with, start updating\r\nyour daily'
p1598
I1
sS'healthy way  3)Eat'
p1599
I16
sS'17.7777786254883px; line-height: 24.0000019073486px;">Do they'
p1600
I1
sS'hydrogenated oil and high'
p1601
I186
sS'the Quantity of the'
p1602
I24
sS'Health Tip:You dont have'
p1603
I21
sS'makhanas</span></div>\r\n<div><span style="color: #5d5d5d; font-family:'
p1604
I2
sS'butter</span></div>\r\n<div><span style="color: #5d5d5d; font-family:'
p1605
I2
sS'slow you go,you are'
p1606
I20
sS'out my new stuff'
p1607
I9
sS"/>Let's get connected over"
p1608
I53
sS"day. Let's get it"
p1609
I1
sS'and sleep.<o:p></o:p></span></p>\r\n\r\n<p class="MsoNormal" style="margin:'
p1610
I2
sS'by day and make'
p1611
I105
sS'style="color: rgb(93, 93, 93);'
p1612
I1719
sS'sans-serif; font-size: 13.3333339691162px;">*boiled corn'
p1613
I1
sS'title="Grinning Face" src="chrome-extension://cahedbegdkagmcjfolhdlechbkeaieki/images/apple/1f600.png" alt="????"'
p1614
I61
sS'are chatting with me'
p1615
I2
sS'than we were yesterday.'
p1616
I52
sS'the nutrition label that'
p1617
I37
sS'text">While\r\n you have the'
p1618
I1
sS'Beta Phase. You are'
p1619
I26
sS'or dryfruit \r\nbased sweets!'
p1620
I2
sS'6)Do something active-GET OUTSIDE'
p1621
I38
sS'you can do it.????&nbsp;'
p1622
I1
sS'as well, so that'
p1623
I7
sS'be great if you'
p1624
I516
sS'per your body weight'
p1625
I129
sS'sunflower seedsCorn salad with'
p1626
I1
sS'hear from you soon.&nbsp;</span><div'
p1627
I1
sS'want to highlight a'
p1628
I57
sS'today than you were'
p1629
I25
sS'got to remember these'
p1630
I179
sS'0px;">4. Avoid foods with'
p1631
I2
sS'while enjoying the sweets'
p1632
I41
sS'attractive the packaging, the'
p1633
I183
sS'14px; line-height: 16.7999992370605px;"><span style="color:'
p1634
I730
sS'Run, dance and swirl'
p1635
I40
sS"it's sugar, the product"
p1636
I37
sS'ORS, eat lots of'
p1637
I1
sS"it's a gradual process.."
p1638
I52
sS'will for sure reply.Let'
p1639
I1
sS'me know the the'
p1640
I153
sS'style="margin-bottom: 0.0001pt; background-image: initial;'
p1641
I39
sS'54, 54); font-family: Roboto,'
p1642
I298
sS'eat again, your body'
p1643
I46
sS'days and I am'
p1644
I43
sS'gets over in month'
p1645
I3
sS'can liberally \r\nrelish jaggery-wheat'
p1646
I22
sS'Mitali lets try&nbsp; having'
p1647
I1
sS'As mentioned earlier, the'
p1648
I42
sS'93); font-size: 14px; font-family:'
p1649
I6
sS'are using the GOQii'
p1650
I6
sS'for the CONSUMER LAUNCH!!'
p1651
I76
sS'sweets offered to you.'
p1652
I46
sS'As always some amazing'
p1653
I1
sS'class="imageViewerInLarge" src="http://goqii-app.s3.amazonaws.com/user/images/s_1398239257.jpg" alt="" />'
p1654
I1
sS'black currants, figs, apricots)</div>'
p1655
I2
sS'difficult to hit your'
p1656
I49
sS'font-family: Roboto, sans-serif;">*boiled black'
p1657
I2
sS'Roman&quot;;mso-bidi-font-family:Arial;\r\ncolor:#222222">Refer to this link'
p1658
I1
sS'style="color: #5d5d5d; font-family: Roboto,'
p1659
I1561
sS'link for a GOQii'
p1660
I264
sS'your current lifestyle and'
p1661
I46
sS'enjoying the sweets offered'
p1662
I41
sS'background-origin: initial; background-clip: initial;'
p1663
I736
sS'line-height: 16.7999992370605px;"><span class="emoji emoji1f60a"'
p1664
I14
sS"buddy.. Let's start working"
p1665
I16
sS'i.e. your nutrition (food'
p1666
I239
sS'like to share how'
p1667
I7
sS'sans-serif;">I have listed down'
p1668
I2
sS'me know, I can'
p1669
I14
sS'begins the action-packed week!!'
p1670
I105
sS'be able to analyze'
p1671
I23
sS'that are preventing you'
p1672
I5
sS'is to rejuvenate the'
p1673
I29
sS'know more about GOQii,'
p1674
I264
sS'for a Healthy weekend'
p1675
I38
sS'a 20 minutes call'
p1676
I184
sS'know the reason why'
p1677
I30
sS'love if you could'
p1678
I39
sS'yesterday. What say? :)'
p1679
I19
sS'with you today- My'
p1680
I18
sS'has several other benefits'
p1681
I12
sS'so lets be more'
p1682
I85
sS'14px; line-height: 16.7999992370605px;"></span><span style="box-sizing:'
p1683
I14
sS'width: 1.2em !important; background-color:'
p1684
I99
sS'and check out if'
p1685
I7
sS'today? I would be'
p1686
I13
sS'after a week... but'
p1687
I101
sS'installed in the Lumia'
p1688
I1
sS'/><br />I would really'
p1689
I9
sS'music ....<br>How about you?'
p1690
I1
sS'can D-A-N-C-E! In fact,'
p1691
I12
sS'of those pieces!! :)'
p1692
I44
sS'sans-serif; font-size: 13.3333339691162px;">I have'
p1693
I1
sS'agents).. How necessary it'
p1694
I29
sS'more about your health'
p1695
I106
sS'our health!</div>\r\n<div style="box-sizing: border-box;'
p1696
I9
sS'LAUNCH!! Thanks for all'
p1697
I59
sS'line-height: 1.2;">how have you'
p1698
I5
sS'to our health!</div>\r\n<div style="box-sizing:'
p1699
I9
sS'stretching, nutrition and even'
p1700
I117
sS'plan&nbsp; to play with'
p1701
I33
sS'get back by Wednesday'
p1702
I1
sS'margin: 0px; padding: 0px;"></span><span'
p1703
I202
sS'week Kishor.<img src="http://goqii-app.s3.amazonaws.com/emoticons/smiley-laughing.gif" alt=""'
p1704
I1
sS'your updates,still waiting to'
p1705
I1
sS'with natural colourful foods!'
p1706
I19
sS'share with you....Exercise is'
p1707
I20
sS'Hi Mitali,&nbsp;<span style="box-sizing: border-box;'
p1708
I1
sS'wrong ones! Have a'
p1709
I22
sS'1.2;"><div class="row control-group" style="box-sizing:'
p1710
I25
sS'to share with you....Exercise'
p1711
I20
sS':) I am sure'
p1712
I61
sS'you could watch it'
p1713
I57
sS':) I truly believe'
p1714
I43
sS'everybody on the Couch.'
p1715
I20
sS'14px; line-height: 16.7999992370605px;">Check it'
p1716
I30
sS'by listening to GOQii'
p1717
I167
sS'Will do. But how'
p1718
I1
sS'that I can analyse'
p1719
I232
sS'Stretch... Find some time'
p1720
I22
sS'forget to do some'
p1721
I1
sS'puran poli and other'
p1722
I30
sS',<span style="color: rgb(93, 93,'
p1723
I48
sS'you plan to pick'
p1724
I37
sS'Roboto, sans-serif; font-size: 13.3333339691162px;">*roasted'
p1725
I1
sS'14px; line-height: 16.7999992370605px;">Proteins play'
p1726
I7
sS'routine and goals, and'
p1727
I7
sS'color: rgb(93, 93, 93);'
p1728
I3730
sS'for healthier cells and'
p1729
I61
sS'will be able to'
p1730
I387
sS'Mitali,&nbsp;<span style="box-sizing: border-box; margin:'
p1731
I1
sS'we have more information'
p1732
I145
sS'0px; padding: 0px;">It\'s easy'
p1733
I1
sS'14px; line-height: 16.7999992370605px;">Let\'s calculate'
p1734
I7
sS'for you- When you'
p1735
I46
sS'feel re-energized and refreshed!'
p1736
I29
sS"BIGGEST! ( if it's"
p1737
I8
sS'the workout.&nbsp;<br style="box-sizing: border-box;'
p1738
I10
sS'health!</div>\r\n<div style="box-sizing: border-box; margin:'
p1739
I9
sS'only make our plate'
p1740
I24
sS'for connecting!Glad to have'
p1741
I1
sS'suspicious you should be'
p1742
I186
sS'a healthy way'
p1743
I101
sS"goals.<br /><br />Let's get"
p1744
I1
sS'about GOQii, watch this'
p1745
I263
sS'lets try&nbsp; having 2'
p1746
I1
sS'inherit !important; -webkit-perspective: none'
p1747
I466
sS'to be a little'
p1748
I100
sS'hi<img src="http://goqii-app.s3.amazonaws.com/emoticons/smiley-kiss.gif" alt="" />'
p1749
I1
sS'14px; line-height: 16.7999992370605px;">You must'
p1750
I11
sS'August 1st, 2014, for'
p1751
I76
sS'u chatting through phone'
p1752
I1
sS'Satish. Super cool breakfast...???\x9f&nbsp;<br>So'
p1753
I1
sS'Life! I am Tejal\r\nGupte,'
p1754
I1
sS'gave me a target,'
p1755
I1
sS'I truly believe in'
p1756
I51
sS'should Dance!! Not just'
p1757
I12
sS'the packaging, the more'
p1758
I183
sS'in.. The better I'
p1759
I22
sS"Let's get it started..Our"
p1760
I1
sS'to lead a healthier'
p1761
I128
sS'minute we spend on'
p1762
I26
sS'been a drop in'
p1763
I1
sS'way  3)Eat like'
p1764
I16
sS'line-height: 16.7999992370605px;">If we are,'
p1765
I1
sS'padding: 0em !important; border:'
p1766
I299
sS'sans-serif" style="box-sizing: border-box; margin:'
p1767
I34
sS'next few days\r\nincluding your'
p1768
I1
sS'Nutrition Facts label and'
p1769
I171
sS'our GOAL.. It would'
p1770
I22
sS'chocolate bar into four'
p1771
I44
sS'to connect. &nbsp;</span><br data-mce-bogus="1">'
p1772
I1
sS'WELL while ordering out'
p1773
I38
sS'nutrition is Queen. Put'
p1774
I20
sS'pick some processed and'
p1775
I37
sS'Mitali<br>Are you going for'
p1776
I1
sS'by playing out door'
p1777
I74
sS"new stuff and you'll"
p1778
I9
sS'for us to connect.'
p1779
I231
sS'the gear to the'
p1780
I3
sS'next steps.<o:p></o:p></span></p>\r\n\r\n<p class="MsoNormal" style="margin-bottom:'
p1781
I1
sS'a LONG INGREDIENT LIST!</div><div'
p1782
I17
sS'and the GOQii application.</span><br'
p1783
I3
sS'9)Dont have a LAZY'
p1784
I38
sS'line-height: 16.7999992370605px;"><span style="box-sizing: border-box;'
p1785
I677
sS'day and make it'
p1786
I112
sS'My blog post on'
p1787
I24
sS'The quick solution to'
p1788
I29
sS'Hello&nbsp;<img src="http://goqii-app.s3.amazonaws.com/emoticons/smiley-smile.gif" alt="" />'
p1789
I3
sS'band with the app.&nbsp;&nbsp;Let'
p1790
I2
sS'font-family: Roboto, sans-serif;"></span><span style="color:'
p1791
I1
sS'formal coaching date is'
p1792
I42
sS'visit the super markets'
p1793
I32
sS'54); font-size: 12px; line-height:'
p1794
I45
sS'we are, then we'
p1795
I5
sS'preferably&nbsp; during the day.'
p1796
I1
sS'for today is to'
p1797
I3
sS'very good source of'
p1798
I9
sS'dryfruits (dates, raisins, black'
p1799
I2
sS'have listed down a'
p1800
I5
sS'or some crunchy salads'
p1801
I29
sS'How necessary it is'
p1802
I29
sS'did you have yesterday?'
p1803
I5
sS'all the Energy and'
p1804
I167
sS'not only make our'
p1805
I24
sS'you should be ('
p1806
I180
sS'some RELAXATION time'
p1807
I56
sS'sans-serif;">if you are facing'
p1808
I1
sS'by the BIG letters'
p1809
I177
sS'tip for you- When'
p1810
I46
sS'never imagine!! So keep'
p1811
I94
sS'padding: 0px; color: #5d5d5d;'
p1812
I2347
sS'!important; width: 1.2em !important;'
p1813
I157
sS'those nasty colouring agents'
p1814
I24
sS'not see results after'
p1815
I106
sS'your coach would like'
p1816
I7
sS'Vishal. Ready for some'
p1817
I1
sS'goals too.&nbsp;</span><div style="box-sizing: border-box;'
p1818
I2
sS'padding: 0px;" />Why add'
p1819
I7
sS'play a major role'
p1820
I8
sS'veggie sandwich</span><br style="box-sizing: border-box;'
p1821
I1
sS'next 2 days?<br data-mce-bogus="1">'
p1822
I2
sS'16.7999992370605px;">Do you??&nbsp;</div>\r\n<div style="box-sizing: border-box;'
p1823
I7
sS'if you could watch'
p1824
I43
sS'color: rgb(255, 66, 66);"><div'
p1825
I4
sS'numbers are shining my'
p1826
I1
sS'HAVE A LOVELY'
p1827
I56
sS'(dates, raisins, black currants,'
p1828
I2
sS'your GOQii Coach<i>.</i>&nbsp;First of'
p1829
I1
sS'with peanut butter</span></div>\r\n<div><span style="color:'
p1830
I2
sS'to protect your body'
p1831
I63
sS'nature has gifted us'
p1832
I24
sS'ahead. As mentioned earlier,'
p1833
I42
sS'you. We could work'
p1834
I49
sS'to stay healthy.Your subscription'
p1835
I4
sS'time it izz. so'
p1836
I64
sS'face="Roboto, sans-serif" style="box-sizing: border-box;'
p1837
I29
sS'partying keep GPRS rule'
p1838
I99
sS'font-size: 14px; line-height: 16.7999992370605px;">&nbsp;sometimes'
p1839
I2
sS"Today's Health Tip :No"
p1840
I20
sS'to be a Special'
p1841
I26
sS'font-family: Roboto, sans-serif;">if you'
p1842
I1
sS'shall aim to be'
p1843
I66
sS'in results.</span><br style="box-sizing: border-box;'
p1844
I1
sS'<img src="http://goqii-app.s3.amazonaws.com/emoticons/smiley-music.gif" alt="" />'
p1845
I7
sS'today than we were'
p1846
I65
sS'which helps us have'
p1847
I7
sS"Hey Player,Today's Health Tip:You"
p1848
I16
sS'pieces\r\n<div><br />A fistful of'
p1849
I1
sS'how are walking sessions'
p1850
I1
sS'Waiting for the sim'
p1851
I1
sS'engaging with you these'
p1852
I41
sS'drop in your step'
p1853
I5
sS'active by playing out'
p1854
I74
sS'sans-serif; font-size: 13.3333339691162px;">*boiled black'
p1855
I1
sS'peanut butter</span><br style="box-sizing: border-box;'
p1856
I1
sS"player.. Here's something I"
p1857
I20
sS'64px !important; position: relative'
p1858
I461
sS"Thus, it's a gradual"
p1859
I57
sS'irritation. Last but not'
p1860
I32
sS'life, please share it'
p1861
I1
sS'sans-serif;">*at times you can'
p1862
I2
sS"you in ways you'd"
p1863
I108
sS'aware that a halt'
p1864
I5
sS'16.7999992370605px;">&nbsp;</span><span style="box-sizing: border-box; margin:'
p1865
I24
sS'My core is not'
p1866
I1
sS'stores away more than'
p1867
I46
sS'amazing numbers are shining'
p1868
I1
sS'returned to us at'
p1869
I13
sS'to help you excel'
p1870
I46
sS'down and you are'
p1871
I46
sS'width: 300px; text-align: center;'
p1872
I472
sS'r in hybernate.&nbsp;<img src="http://goqii-app.s3.amazonaws.com/emoticons/smiley-laughing.gif"'
p1873
I1
sS'feel very sleep in'
p1874
I1
sS'soy nuts</span></div>\r\n<div><span style="color: #5d5d5d;'
p1875
I2
sS'the next few days\r\nincluding'
p1876
I1
sS'begin with, start updating\r\nyour'
p1877
I1
sS'0px; padding: 0px; background-image:'
p1878
I661
sS'height: auto;"></div></div></div></div><div class="row date-box"'
p1879
I1
sS'will discuss\r\nthis on our'
p1880
I1
sS'should I do for'
p1881
I1
sS'Coach r u there.................'
p1882
I1
sS'morning Vishal. WOw!!! you'
p1883
I1
sS'it is not too'
p1884
I63
sS'accountable and will for'
p1885
I1
sS'have a LAZY SUNDAY'
p1886
I56
sS'exploring the GOQii Band\r\nand'
p1887
I1
sS'macronutrient-&nbsp;</span><strong style="box-sizing: border-box; margin:'
p1888
I6
sS'be really glad to'
p1889
I60
sS'alt="" /><br /><br /><br'
p1890
I450
sS'I ll try my'
p1891
I1
sS'padding: 0px;">2. The FIRST'
p1892
I2
sS'hit your target. If'
p1893
I42
sS'you gave me a'
p1894
I1
sS'max-height: 64px !important; position:'
p1895
I461
sS'your bare hands, and'
p1896
I44
sS'to start the coaching'
p1897
I20
sS'physical activity that you'
p1898
I58
sS'why I have been'
p1899
I25
sS'13.3333339691162px;">*whole wheat bread with'
p1900
I1
sS'when we visit the'
p1901
I32
sS'keeping the fat levels'
p1902
I7
sS'line-height: 16.7999992370605px;">Can you share'
p1903
I19
sS'face="Roboto, sans-serif"><span style="font-size: 14px;'
p1904
I32
sS'than aiming to be'
p1905
I90
sS'18px; line-height: 21.6000003814697px;" /><span'
p1906
I546
sS'oil and high fructose'
p1907
I186
sS'Hi Mitra,&nbsp;<span style="box-sizing: border-box;'
p1908
I1
sS'a kingdom of good'
p1909
I60
sS'walks alone or with'
p1910
I1
sS'and also help you'
p1911
I11
sS'class="imageViewerInLarge" src="http://goqii-app.s3.amazonaws.com/user/user/s_1424510585.jpg" alt="" data-mce-src="http://goqii-app.s3.amazonaws.com/user/user/s_1424510585.jpg"'
p1912
I2
sS'very rightly said that'
p1913
I44
sS'you eat...the amount of'
p1914
I57
sS'Good morning Vishal. WOw!!!'
p1915
I1
sS'Avoid foods that contain'
p1916
I186
sS'about places,going shopping,etc. While'
p1917
I19
sS'13.3333339691162px;">*boiled black chanas with'
p1918
I1
sS'I will be able'
p1919
I140
sS'getting familiarized by it.'
p1920
I7
sS'for our continued coaching'
p1921
I5
sS'and you can save'
p1922
I171
sS'#5d5d5d; font-family: Roboto, sans-serif;">*at'
p1923
I2
sS'so that I can'
p1924
I1359
sS'further with our coaching.???\x9f&nbsp;'
p1925
I1
sS'veggies</span><br style="box-sizing: border-box; margin:'
p1926
I3
sS'font-size: 14px; line-height: 16.7999992370605px;">We'
p1927
I231
sS'has gifted us with'
p1928
I24
sS'16.7999992370605px;">Can you share what\'s'
p1929
I18
sS'are shining my dashboard.<img'
p1930
I1
sS'that you do. Thus,'
p1931
I57
sS'missing you and your'
p1932
I2
sS'in the morning before'
p1933
I64
sS'moving in this direction!</span><br'
p1934
I1
sS'4)DONT GO HUNGRY to'
p1935
I38
sS'loading!&nbsp;???\x9f&nbsp;<br><br>Which workouts/activities are lined'
p1936
I1
sS"keep going...!! :) We'll"
p1937
I96
sS'high fructose corn syrup'
p1938
I213
sS'simple cues and you'
p1939
I37
sS'make your family, relatives'
p1940
I76
sS'0px; padding: 0px; width:'
p1941
I481
sS'skin replaces itself. Your'
p1942
I63
sS'targeting at 6000 steps'
p1943
I1
sS'to announce that GOQii'
p1944
I76
sS'!important; max-height: 64px !important;'
p1945
I466
sS'color: #5d5d5d; font-family: Roboto,'
p1946
I3131
sS'some mindful eating at'
p1947
I1
sS'bread with peanut butter</span></div>\r\n<div><span'
p1948
I2
sS'Coach,<br /><br />I stared'
p1949
I1
sS'tremendous value to our'
p1950
I24
sS'their goals. Since your'
p1951
I48
sS'like you to check'
p1952
I37
sS'with chopped veggies</span><br style="box-sizing:'
p1953
I3
sS'with crap!<br style="box-sizing: border-box;'
p1954
I1
sS'Player... every 28 days,'
p1955
I48
sS'butterA cup of curd'
p1956
I1
sS'corn chaat</span><br style="box-sizing: border-box;'
p1957
I1
sS'be better day by'
p1958
I105
sS'WOw!!! you had a'
p1959
I1
sS'like to know a'
p1960
I385
sS'line-height: 16.7999992370605px;">,&nbsp;</span><span style="box-sizing: border-box;'
p1961
I1
sS'with paneer pieces\r\n<div><br />A'
p1962
I1
sS'0px; padding: 0px;">1.Don\x83??t be'
p1963
I1
sS'GOQii user with whom'
p1964
I9
sS'were yesterday. What say?'
p1965
I19
sS'it kick-started by listening'
p1966
I167
sS'0px; float: right;"><br style="box-sizing:'
p1967
I3
sS'Can I delete my'
p1968
I1
sS'with whom I have'
p1969
I9
sS'you these days and'
p1970
I41
sS'through exercise, stretching, nutrition'
p1971
I117
sS'yogurt with crushed nuts</span></div>\r\n<div><span'
p1972
I2
sS"Hey Player...What's up for"
p1973
I12
sS'you at a later'
p1974
I104
sS'connected over a call'
p1975
I109
sS'body with crap!<br style="box-sizing:'
p1976
I1
sS'is made up mostly'
p1977
I180
sS'14px; line-height: 16.7999992370605px;">I want'
p1978
I50
sS'max-width: 64px !important; height:'
p1979
I461
sS'but you know what'
p1980
I106
sS'look forward to our'
p1981
I123
sS'14px; line-height: 16.7999992370605px;">,</span><span style="box-sizing:'
p1982
I1
sS'whom I have worked'
p1983
I12
sS'sound good to you?</span>'
p1984
I2
sS'a king, nutrition is'
p1985
I42
sS'the Beta Phase. You'
p1986
I26
sS'interesting stuff to share'
p1987
I23
sS'font-size: 14px; line-height: 16.7999992370605px;">Let\'s'
p1988
I117
sS'the label.</div><div style="box-sizing: border-box;'
p1989
I7
sS'pave way for healthier'
p1990
I29
sS'#5d5d5d; font-family: Roboto, sans-serif;">*fruit'
p1991
I2
sS'just got to remember'
p1992
I179
sS'LIST!</div><div style="box-sizing: border-box; margin:'
p1993
I4
sS'app.&nbsp;&nbsp;Let me know the'
p1994
I2
sS'skin irritation. Last but'
p1995
I32
sS'regular with our workouts,'
p1996
I2
sS'refreshed! The quick solution'
p1997
I29
sS'coach would like to'
p1998
I8
sS'The better I will'
p1999
I22
sS'A GOQii Life Story'
p2000
I50
sS'Quality and not the'
p2001
I24
sS"Heya,Today's Health Tip:You dont"
p2002
I21
sS'and additional fitness activity)'
p2003
I197
sS'for the next few'
p2004
I87
sS'small letters on the'
p2005
I180
sS'yourself full with the'
p2006
I22
sS'mind and eat.(Grilled, Poached,'
p2007
I66
sS'weekend  1)DO YOUR'
p2008
I16
sS'new cells from the'
p2009
I63
sS'14px; line-height: 16.7999992370605px;">I eat'
p2010
I9
sS'sans-serif; line-height: 19.5px;">&nbsp;Hi Satish.'
p2011
I1
sS'highlight a GOQii user'
p2012
I55
sS'resulting in more fat.'
p2013
I27
sS'that would fill you'
p2014
I167
sS'So here comes the'
p2015
I54
sS'text" style="box-sizing: border-box; margin:'
p2016
I663
sS'16.7999992370605px;"></span><span style="box-sizing: border-box; margin:'
p2017
I14
sS'because Dancing is fun,'
p2018
I12
sS'started with a great'
p2019
I6
sS'more about GOQii, watch'
p2020
I264
sS'few evening snacking options'
p2021
I3
sS'the GOQii Band\r\nand App,'
p2022
I1
sS'sure you hit your'
p2023
I28
sS'style="font-family:&quot;Verdana&quot;,&quot;sans-serif&quot;;mso-fareast-font-family:&quot;Times New Roman&quot;;\r\nmso-bidi-font-family:Arial;color:#222222"><o:p></o:p></span></p>\r\n\r\n<p class="MsoNormal"'
p2024
I1
sS'to rejuvenate the cells..'
p2025
I29
sS'these new cells from'
p2026
I63
sS'grain impostors. Choose breads,'
p2027
I51
sS'plan to pick some'
p2028
I37
sS'little more about you'
p2029
I219
sS'0px;">Make a healthier choice,'
p2030
I1
sS'your data.<br>Please do let'
p2031
I1
sS'you are using the'
p2032
I16
sS'We could work together'
p2033
I49
sS'you stay \r\nmindful while'
p2034
I21
sS'with it&nbsp;<img src="http://goqii-app.s3.amazonaws.com/emoticons/smiley-smile.gif" alt=""'
p2035
I1
sS'chatWhole wheat Bread and'
p2036
I1
sS'10 Tips for'
p2037
I38
sS'outline-style: none !important; resize:'
p2038
I466
sS'water you drink and'
p2039
I63
sS'counts and additional fitness'
p2040
I286
sS'class="imageViewerInLarge" src="http://goqii-app.s3.amazonaws.com/user/images/s_1398265226.jpg" alt="" />'
p2041
I1
sS'and co-operation through the'
p2042
I76
sS'places,going shopping,etc. While partying'
p2043
I19
sS'away more than usual'
p2044
I46
sS'middle; max-width: 64px !important;'
p2045
I299
sS'daily routine via our'
p2046
I263
sS'returned to you at'
p2047
I104
sS'have you planned to'
p2048
I77
sS'and sleep data too&nbsp;'
p2049
I1
sS'0px; vertical-align: middle; max-width:'
p2050
I1528
sS'the cells.. and feel'
p2051
I29
sS'on feeling physically better'
p2052
I117
sS'be more active by'
p2053
I101
sS'know a little more'
p2054
I202
sS'0px; padding: 0px;"></span><span style="box-sizing:'
p2055
I124
sS'colours!</div>\r\n<div style="box-sizing: border-box; margin:'
p2056
I9
sS'in mind and eat.(Grilled,'
p2057
I66
sS'Roman&quot;;mso-bidi-font-family:Arial;\r\ncolor:#1155CC">http://bit.ly/1smgaiI</span></a><span style="font-family:&quot;Verdana&quot;,&quot;sans-serif&quot;;\r\nmso-fareast-font-family:&quot;Times New Roman&quot;;mso-bidi-font-family:Arial;\r\ncolor:#222222"><o:p></o:p></span></p>\r\n\r\n<p'
p2058
I1
sS'as we start our'
p2059
I8
sS'levels at bay.</div><div style="box-sizing:'
p2060
I7
sS'rgb(54, 54, 54); font-family:'
p2061
I299
sS'Mitali,<br><br>How are you ?'
p2062
I1
sS'url(http://coach.goqii.com/webApp/css-img/emoji.png?v=0.2.2) !important;"></span></span></font><div class="row date-box"'
p2063
I6
sS'of the GOQii Family!'
p2064
I65
sS'know what buddy, every'
p2065
I99
sS'you today- My blog'
p2066
I18
sS'Bread and Peanut butterA'
p2067
I1
sS'font-size: 13.3333339691162px;">*boiled corn chaat</span><br'
p2068
I1
sS'rgb(85, 85, 85); font-family:'
p2069
I84
sS'LONG INGREDIENT LIST!</div><div style="box-sizing:'
p2070
I4
sS'list is always the'
p2071
I186
sS'13.3333339691162px;">*boiled corn chaat</span><br style="box-sizing:'
p2072
I1
sS'update in app calling'
p2073
I1
sS'foods, then hold on!'
p2074
I37
sS'would be really glad'
p2075
I61
sS'journey? Don,t forget to'
p2076
I1
sS'0px; border: 0px; vertical-align:'
p2077
I1536
sS'and routine. To begin'
p2078
I7
sS'to take you through'
p2079
I330
sS'Roboto, sans-serif;">I have listed'
p2080
I2
sS'it is to rejuvenate'
p2081
I29
sS'So keep going...!! :)'
p2082
I96
sS'it&nbsp;<img src="http://goqii-app.s3.amazonaws.com/emoticons/smiley-smile.gif" alt="" />'
p2083
I50
sS'to congratulate\r\nyou for taking'
p2084
I1
sS'make a correct choice'
p2085
I37
sS'help getting it solved'
p2086
I1
sS'Mitali<br>I am missing you'
p2087
I1
sS'<p class="MsoNormal" style="margin: 12pt'
p2088
I5
sS'/>Why add those nasty'
p2089
I7
sS'announce that GOQii goes'
p2090
I76
sS'Me kuthe distey.partial or'
p2091
I1
sS'sans-serif;">Do they sound good'
p2092
I2
sS'Mitali,<br><br>As per laast update'
p2093
I1
sS'Glad to have you'
p2094
I546
sS'we can plan our'
p2095
I134
sS'Fiber is your friend!'
p2096
I180
sS'we can plan out'
p2097
I56
sS'snacking options for you-</span><br'
p2098
I1
sS'are not burning calories'
p2099
I46
sS'<div>Hi&nbsp;<br><br>Every minute we spend'
p2100
I1
sS'door games, dancing ,'
p2101
I19
sS'Currently. I am out'
p2102
I1
sS'0px; padding: 0px; line-height:'
p2103
I416
sS'us at a later'
p2104
I13
sS'am Tejal\r\nGupte, your GOQii'
p2105
I1
sS'boxes)<br style="box-sizing: border-box; margin:'
p2106
I1
sS'set up the GOQii'
p2107
I160
sS'and refreshed! The quick'
p2108
I29
sS'nuts</span><br style="box-sizing: border-box; margin:'
p2109
I3
sS'targets consistently! When can'
p2110
I22
sS'19.5px;">&nbsp;Hi Satish. Welcome to'
p2111
I1
sS'you set up the'
p2112
I147
sS'an ability to break'
p2113
I44
sS'crackers &amp; pasta with'
p2114
I180
sS'border-box; margin: 0px 0px'
p2115
I746
sS'enjoy my walks listening'
p2116
I1
sS'the CONSUMER LAUNCH!! Thanks'
p2117
I59
sS'GOQii life, please share'
p2118
I1
sS'chatting with me through'
p2119
I1
sS'weekend buddy! Keep me'
p2120
I22
sS'positive step towards a'
p2121
I7
sS'93, 93); font-family: Roboto,'
p2122
I3318
sS'2)SPLURGE in a healthy'
p2123
I38
sS'syrup on the label.</div><div'
p2124
I21
sS'a health tip for'
p2125
I27
sS'Sprout chat / Corn'
p2126
I3
sS'u see my steps'
p2127
I1
sS'have you on board!!'
p2128
I221
sS'an adequate supply of'
p2129
I7
sS'u r in hybernate.&nbsp;<img'
p2130
I1
sS"Heya, Today's Health Tip"
p2131
I20
sS'and goals, and based'
p2132
I7
sS'line-height: 16.7999992370605px;">We need to'
p2133
I15
sS'eat my colours!</div>\r\n<div style="box-sizing:'
p2134
I9
sS'opacity: 1 !important; outline-style:'
p2135
I466
sS'sleep.<o:p></o:p></span></p>\r\n\r\n<p class="MsoNormal" style="margin: 12pt'
p2136
I2
sS'crushed nuts</span></div>\r\n<div><span style="color: #5d5d5d;'
p2137
I2
sS'really glad to help'
p2138
I59
sS'rgb(93, 93, 93); font-size:'
p2139
I67
sS':)  What say?'
p2140
I25
sS'consistently! When can we'
p2141
I22
sS'to work together to'
p2142
I25
sS'it and we can'
p2143
I60
sS'you!&nbsp;<img class="imageViewerInLarge" src="http://goqii-app.s3.amazonaws.com/user/user/s_1424510585.jpg" alt=""'
p2144
I2
sS'!important; z-index: inherit !important;'
p2145
I466
sS'Are we constantly working'
p2146
I90
sS'initial; background-position: initial; background-repeat:'
p2147
I736
sS'ON THE WEEKDAYS'
p2148
I38
sS'Start to be Great:)'
p2149
I21
sS'color: rgb(54, 54, 54);'
p2150
I317
sS'hands, and just eat'
p2151
I44
sS'then we need to'
p2152
I10
sS'it going with our'
p2153
I59
sS'sans-serif;">&nbsp;</span></div>\r\n<div><span style="color: #5d5d5d; font-family:'
p2154
I2
sS'special summer offer to'
p2155
I5
sS'reason why I have'
p2156
I24
sS'like to congratulate\r\nyou for'
p2157
I1
sS'0px; width: 300px; text-align:'
p2158
I472
sS"comes the day!! Let's"
p2159
I42
sS'feel after finishing your'
p2160
I1
sS'or soy nuts</span></div>\r\n<div><span style="color:'
p2161
I2
sS'going?</span><br style="box-sizing: border-box; margin:'
p2162
I8
sS'CONSUMER LAUNCH!! Thanks for'
p2163
I59
sS"better self?</div><div><br></div><div>Why delay? Let's"
p2164
I9
sS'14px; line-height: 16.7999992370605px;">I believe'
p2165
I6
sS'your body.&nbsp;</div><div style="box-sizing: border-box;'
p2166
I7
sS'line-height: 16.7999992370605px;">Bela Gupta, A'
p2167
I11
sS'to the active mode.</span><br'
p2168
I3
sS'label and ingredient list.'
p2169
I186
sS'sound good to you?</span></div>'
p2170
I2
sS'arial, sans-serif; line-height: 19.5px;">&nbsp;Hi'
p2171
I1
sS'You are always going'
p2172
I76
sS'the GOQii Family! Moreover,'
p2173
I48
sS'yeah.. speak to sachin.'
p2174
I1
sS'top: 0.25em !important; z-index:'
p2175
I427
sS'well, so that I'
p2176
I5
sS'style="box-sizing: border-box; margin: 0px'
p2177
I6145
sS'great enthusiasm from tomorrow!'
p2178
I6
sS'GOQii Life Story -'
p2179
I41
sS'like to share with'
p2180
I196
sS'New Roman&quot;;\r\nmso-bidi-font-family:Arial;color:#1155CC">http://bit.ly/1EAMpVQ</span></a><span style="font-family:&quot;Verdana&quot;,&quot;sans-serif&quot;;mso-fareast-font-family:&quot;Times New'
p2181
I1
sS'font-size: 14px; line-height: 16.7999992370605px;">&nbsp;</div>\r\n<div'
p2182
I176
sS'mentioned earlier, the formal'
p2183
I42
sS'Tip:You dont have to'
p2184
I21
sS'at a later date.'
p2185
I113
sS'ones, make sure you'
p2186
I41
sS'0px; padding: 0px;" /><br'
p2187
I691
sS'New Roman&quot;;\r\nmso-bidi-font-family:Arial;color:#222222">Once we have'
p2188
I1
sS'a drop in your'
p2189
I8
sS'1st, 2014, for the'
p2190
I76
sS'what I have to'
p2191
I15
sS'class="chromoji" style="box-sizing: border-box; margin:'
p2192
I299
sS'colourful foods! Colours, which'
p2193
I24
sS'gear to the active'
p2194
I3
sS'wagon and shift the'
p2195
I45
sS'walnuts)&nbsp;Roasted MakhanasRoasted pumpkin seeds'
p2196
I1
sS'font-size: 14px; line-height: 16.7999992370605px;">,&nbsp;</span><span'
p2197
I1
sS'padding: 0px;"></div><div style="box-sizing: border-box;'
p2198
I901
sS'to share how you'
p2199
I1
sS'#5d5d5d; font-family: Roboto, sans-serif;">*roasted'
p2200
I2
sS'like you do ON'
p2201
I38
sS'sleep will be multiplied'
p2202
I115
sS'sans-serif;">would like to hear'
p2203
I1
sS'and have a detailed'
p2204
I9
sS'be perfect, just aim'
p2205
I25
sS'line-height: 16.7999992370605px;"><span style="color: rgb(93,'
p2206
I747
sS'Gm Satish. Super cool'
p2207
I1
sS'!important; float: none !important;'
p2208
I467
sS'and see you active'
p2209
I1
sS'Tip:How important it is'
p2210
I15
sS'font-size: 13.3333339691162px;">*fruit yogurt with'
p2211
I1
sS'or polluting your body'
p2212
I171
sS'on follow up baby.</p>\r\n<p>On'
p2213
I1
sS'that contain partially hydrogenated'
p2214
I186
sS'Vishal. WOw!!! you had'
p2215
I1
sS'line-height: 16.7999992370605px;">Check it out-&nbsp;https://goqii.com/blog/interval-training-to-put-your-fat-on-flame/</span>'
p2216
I24
sS'Satish. Welcome to GOQii.'
p2217
I1
sS'the GOQii concept and'
p2218
I201
sS'style="color: rgb(85, 85, 85);'
p2219
I43
sS'New Roman&quot;;\r\nmso-bidi-font-family:Arial;color:#222222">Hope you are'
p2220
I1
sS'the day  2)SPLURGE'
p2221
I16
sS'to know a little'
p2222
I194
sS'which not only make'
p2223
I24
sS'timestampchecker 1424530472" style="box-sizing: border-box;'
p2224
I1
sS'class="emoji emoji1f60a" style="box-sizing: border-box;'
p2225
I612
sS'HAVE A LOVELY WEEKEND'
p2226
I56
sS'sleep in afternoon..what to'
p2227
I1
sS'calories as you should.'
p2228
I46
sS'Your bones, 10 years.'
p2229
I57
sS'to be Start to'
p2230
I21
sS'on the list is'
p2231
I187
sS'for the day..good going...&nbsp;'
p2232
I1
sS'OUTSIDE  7)Get enough'
p2233
I16
sS'class="MsoNormal" style="margin: 12pt 0in'
p2234
I1
sS'we visit the super'
p2235
I32
sS'discussion\r\non your routine and'
p2236
I1
sS'which is preventing you'
p2237
I16
sS'you spend on feeling'
p2238
I91
sS'is not too difficult..'
p2239
I61
sS'padding: 0px;">3. Avoid foods'
p2240
I2
sS'!important;" title="Grinning Face" src="chrome-extension://cahedbegdkagmcjfolhdlechbkeaieki/images/apple/1f600.png"'
p2241
I61
sS'lets be more active'
p2242
I102
sS'suitable time and date'
p2243
I278
sS'you back in action!<br'
p2244
I3
sS'/><br />Glad to see'
p2245
I217
sS'body makes these new'
p2246
I63
sS'towards our GOAL.. It'
p2247
I22
sS'it has several other'
p2248
I12
sS'\r\nrelish jaggery-wheat based puran'
p2249
I22
sS'none !important; visibility: inherit'
p2250
I466
sS'font-size: 14px; line-height: 1.2;'
p2251
I72
sS'src="http://goqii-app.s3.amazonaws.com/user/user/s_1424510585.jpg" alt="" data-mce-src="http://goqii-app.s3.amazonaws.com/user/user/s_1424510585.jpg" style="box-sizing:'
p2252
I1
sS'up with it&nbsp;<img src="http://goqii-app.s3.amazonaws.com/emoticons/smiley-smile.gif"'
p2253
I1
sS'one of those pieces!!'
p2254
I44
sS'but not the least,'
p2255
I187
sS'you and your inputs.???\x9b&nbsp;'
p2256
I1
sS'the most suitable time'
p2257
I192
sS"I'm sure you can"
p2258
I15
sS'a call to start'
p2259
I8
sS'jaggery or dryfruit \r\nbased'
p2260
I2
sS'16.7999992370605px;">&nbsp;I have an interesting'
p2261
I9
sS'font-size: 14px; line-height: 16.7999992370605px;">Can'
p2262
I63
sS'you active here.&nbsp;</span><font color="#5d5d5d"'
p2263
I1
sS'padding: 0px;"><div style="box-sizing: border-box;'
p2264
I13
sS'congratulate\r\nyou for taking a'
p2265
I1
sS'font-size: 14px; line-height: 16.7999992370605px;">Hey'
p2266
I644
sS'you just got to'
p2267
I171
sS'other benefits too!'
p2268
I12
sS'stuff to share with'
p2269
I29
sS"in ways you'd never"
p2270
I109
sS'/><br />I stared going'
p2271
I1
sS'polluting your body with'
p2272
I171
sS'some instant cues to'
p2273
I37
sS'you for the next'
p2274
I8
sS'enough SLEEP  8)Prepare'
p2275
I16
sS'co-operation through the Beta'
p2276
I26
sS'more suspicious you should'
p2277
I186
sS'Roboto, sans-serif;">*at times you'
p2278
I2
sS'Roboto, sans-serif;">if you are'
p2279
I1
sS'14px; line-height: 16.7999992370605px;">Hope we'
p2280
I1
sS'get regular with our'
p2281
I3
sS'/><br /><span style="box-sizing: border-box;'
p2282
I142
sS'about you for the'
p2283
I7
sS'times you can even'
p2284
I3
sS'on the label.</div><div style="box-sizing:'
p2285
I7
sS'multiplied 10 times and'
p2286
I116
sS'12px; line-height: 20px;"><div class="msg-box'
p2287
I288
sS'initial;"><span style="font-family:&quot;Verdana&quot;,&quot;sans-serif&quot;;\r\nmso-fareast-font-family:&quot;Times New Roman&quot;;mso-bidi-font-family:Arial;\r\ncolor:#222222">To'
p2288
I1
sS'Lumia yet. Waiting for'
p2289
I1
sS"Hi Mitali<br>How's it going"
p2290
I1
sS'to GOQii Life! I'
p2291
I118
sS'To Start,You have to'
p2292
I21
sS'font-family: Roboto, sans-serif;">would like'
p2293
I1
sS'You know Player... every'
p2294
I48
sS'to highlight a GOQii'
p2295
I55
sS'have you been?&nbsp;</span><font color="#5d5d5d"'
p2296
I5
sS'date is May 15,'
p2297
I40
sS'workouts is directly proportional'
p2298
I69
sS'GOQii anthem https://soundcloud.com/goqii/betheforce-goqii that'
p2299
I84
sS'Roboto, sans-serif;">&nbsp;</span></div>\r\n<div><span style="color: #5d5d5d;'
p2300
I2
sS'growth and repair which'
p2301
I7
sS'0px;">3. Avoid foods that'
p2302
I2
sS'it started..Our target for'
p2303
I1
sS'just eat one of'
p2304
I44
sS'the workouts is directly'
p2305
I69
sS'healthier cells and a'
p2306
I61
sS'line-height: 16.7999992370605px;"></span><span style="box-sizing: border-box;'
p2307
I14
sS'me. I will be'
p2308
I70
sS'style="font-family:&quot;Verdana&quot;,&quot;sans-serif&quot;;\r\nmso-fareast-font-family:&quot;Times New Roman&quot;;mso-bidi-font-family:Arial;\r\ncolor:#222222">&nbsp;<o:p></o:p></span></p>\r\n\r\n<p class="MsoNormal"'
p2309
I1
sS'metabolism slows down and'
p2310
I47
sS'am extremely glad\r\nto have'
p2311
I1
sS'shopping,etc. While partying keep'
p2312
I19
sS'fun, it has several'
p2313
I12
sS'rgb(54, 54, 54); font-size:'
p2314
I53
sS'Just try to daily'
p2315
I1
sS'ability to break a'
p2316
I44
sS'important it is to'
p2317
I35
sS'excitement, I would like'
p2318
I105
sS'<img class="imageViewerInLarge" src="http://goqii-app.s3.amazonaws.com/user/images/s_1398239257.jpg" alt=""'
p2319
I1
sS'you up with all'
p2320
I167
sS'my steps and sleep'
p2321
I1
sS'you are chatting with'
p2322
I1
sS'font-size: 14px; line-height: 16.7999992370605px;">&nbsp;I'
p2323
I95
sS'everyday.. which would pave'
p2324
I61
sS'with tomato chutney or'
p2325
I4
sS'sans-serif; font-size: 14px; line-height:'
p2326
I3893
sS'(food and water),\r\nfitness (steps'
p2327
I2
sS'font-family: arial, sans-serif; line-height:'
p2328
I72
sS'for today? I would'
p2329
I13
sS'very smooth. Let us'
p2330
I1
sS'class="pull-right timestampchecker 1424530472" style="box-sizing:'
p2331
I1
sS'our walks alone or'
p2332
I1
sS"Let's take a first"
p2333
I10
sS'font-family: Roboto, sans-serif;">*roasted makhanas</span></div>\r\n<div><span'
p2334
I2
sS'I feel very sleep'
p2335
I1
sS'font-size: 14px; line-height: 16.7999992370605px;">&nbsp;</span><span'
p2336
I33
sS'a halt in the'
p2337
I5
sS'#betheforce'
p2338
I1998
sS'buddy! Keep me posted.'
p2339
I22
sS'morning before you head'
p2340
I56
sS'93); line-height: 1.2;"><br style="box-sizing:'
p2341
I10
sS'Hey Buddy  10'
p2342
I16
sS'thanks for connecting!Glad to'
p2343
I1
sS'happen! Am I right?'
p2344
I90
sS'0px; padding: 0px;">Make a'
p2345
I1
sS'a GOQii Presentation, we'
p2346
I310
sS'related issues which is'
p2347
I1
sS'been?&nbsp;</span><font color="#5d5d5d" face="Roboto, sans-serif"'
p2348
I5
sS'The more data you'
p2349
I22
sS'with our workouts, and'
p2350
I1
sS'week... but you know'
p2351
I101
sS'font-size: 12px; line-height: 20px;"><div'
p2352
I288
sS'sans-serif; font-size: 13.3333339691162px;">*roasted chickpeas'
p2353
I1
sS'Hello there! :) I'
p2354
I25
sS'middle; max-width: 100%; height:'
p2355
I1524
sS'live in the market'
p2356
I77
sS'dashboard.<img class="imageViewerInLarge" src="http://goqii-app.s3.amazonaws.com/conversation/1413798273_100X100.png" alt=""'
p2357
I1
sS'start our journey, I\r\nas'
p2358
I1
sS'least, keep the \r\nlegs'
p2359
I1
sS'via our GOQii App,'
p2360
I230
sS'Mitali,&nbsp;<span style="color: rgb(93, 93,'
p2361
I1
sS'workouts, and keep the'
p2362
I1
sS'are getting familiarized by'
p2363
I7
sS'adequate supply of the'
p2364
I7
sS'and other jaggery or'
p2365
I21
sS'0.25em !important; z-index: inherit'
p2366
I427
sS'about the Quality and'
p2367
I24
sS'Mitali,&nbsp;<span style="line-height: 1.2; color:'
p2368
I1
sS'to delay in results.</span><br'
p2369
I1
sS'have idli/dosa with tomato'
p2370
I3
sS'eating at the lunch?:)'
p2371
I1
sS'font-size: 14px; line-height: 16.7999992370605px;">Bela'
p2372
I11
sS'at least 2 grams'
p2373
I186
sS'16.7999992370605px;">Hey &nbsp;Satish, I would'
p2374
I1
sS'See my food plate&nbsp;'
p2375
I1
sS'intake is meeting the'
p2376
I7
sS'years. Your body makes'
p2377
I57
sS'a target, to which'
p2378
I1
sS'would really like to'
p2379
I86
sS'to help you EXCEL'
p2380
I11
sS'and even sleep will'
p2381
I115
sS'8px; padding: 0px; color:'
p2382
I337
sS'and Shine and Stretch...'
p2383
I22
sS'sure reply.Let that be'
p2384
I1
sS'aiming to be perfect,'
p2385
I90
sS'which would pave way'
p2386
I29
sS'date-box" style="box-sizing: border-box; margin:'
p2387
I517
sS'have a detailed discussion\r\non'
p2388
I1
sS'a later date. :)'
p2389
I74
sS'laast update in app'
p2390
I1
sS'over in month of'
p2391
I3
sS'call.&nbsp;</span><a href="http://bit.ly/1EAMpVQ" target="_blank"><span style="font-family:&quot;Verdana&quot;,&quot;sans-serif&quot;;mso-fareast-font-family:&quot;Times'
p2392
I1
sS'margin: 0px; padding: 0px;"><br'
p2393
I751
sS'food and water log'
p2394
I296
sS'background-repeat: initial;"><span style="font-family:&quot;Verdana&quot;,&quot;sans-serif&quot;;\r\nmso-fareast-font-family:&quot;Times New'
p2395
I1
sS'calling is very smooth.'
p2396
I1
sS'alt="" /><br /><br />I'
p2397
I660
sS'left: 0px !important; max-height:'
p2398
I461
sS'since last 2 days..'
p2399
I2
sS'forward to our exciting'
p2400
I120
sS"Let's get it kick-started"
p2401
I142
sS'visibility: inherit !important; width:'
p2402
I466
sS'pleasure and excitement, I'
p2403
I76
sS'padding: 0px;"></div></div></div></div></div><div class="row date-box"'
p2404
I3
sS'padding: 0px; color: rgb(54,'
p2405
I306
sS'soon.&nbsp;</span><div class="row date-box" style="box-sizing:'
p2406
I1
sS'doesn\x83??t challenge you, it'
p2407
I33
sS'color: rgb(255, 66, 66);'
p2408
I282
sS'health tip for you-'
p2409
I45
sS'moving Run, dance and'
p2410
I26
sS'favourite activity! ;)'
p2411
I12
sS'this we can plan'
p2412
I137
sS'you-</span><br style="box-sizing: border-box; margin:'
p2413
I1
sS'and excitement, I would'
p2414
I76
sS'delete my vishalgondal@hotmail.com account'
p2415
I1
sS'power music to get'
p2416
I2
sS'New Roman&quot;;mso-bidi-font-family:Arial;\r\ncolor:#222222">To know more'
p2417
I1
sS'93, 93); font-size: 14px;'
p2418
I53
sS'on board!! I would'
p2419
I6
sS'with your loved ones,'
p2420
I42
sS'and other toxic agents)..'
p2421
I29
sS'font-size: 13.3333339691162px;" /><br style="box-sizing:'
p2422
I1
sS'Play a full power'
p2423
I2
sS'font-size: 14px; line-height: 16.7999992370605px;">Hope'
p2424
I67
sS'Player! Rather than aiming'
p2425
I38
sS'of the week Kishor.<img'
p2426
I1
sS'other toxic agents).. How'
p2427
I29
sS'/>I would really like'
p2428
I9
sS'initial;"><span style="font-family:&quot;Verdana&quot;,&quot;sans-serif&quot;;mso-fareast-font-family:&quot;Times New Roman&quot;;\r\nmso-bidi-font-family:Arial;color:#222222">Welcome'
p2429
I1
sS'sure you can do'
p2430
I101
sS'a week... but you'
p2431
I101
sS'66, 66); font-family: Roboto,'
p2432
I281
sS'is May 15, 2014.'
p2433
I40
sS'as per your body'
p2434
I130
sS'halt in the workouts'
p2435
I69
sS'is your friend! Beware'
p2436
I180
sS'Roboto, sans-serif;">*boiled black chanas'
p2437
I2
sS'When can we Gear'
p2438
I22
sS'with chopped veggies</span></div>\r\n<div><span style="color:'
p2439
I2
sS'the fruit. How was'
p2440
I1
sS'93); font-size: 14px; line-height:'
p2441
I47
sS'most suitable time and'
p2442
I191
sS'that would help you'
p2443
I41
sS'a positive step towards'
p2444
I8
sS'when nature has gifted'
p2445
I24
sS', roaming about places,going'
p2446
I19
sS'9)Dont have a'
p2447
I38
sS'how you feel after'
p2448
I9
sS'am missing you and'
p2449
I1
sS'Dipti</p>\r\n<p>Yes I will try:)</p>\r\n<p>&nbsp;</p>'
p2450
I1
sS'and water log as'
p2451
I21
sS'izz. so lets be'
p2452
I64
sS'Am I right? :)'
p2453
I87
sS'cells from the food'
p2454
I63
sS"( if it's sugar,"
p2455
I8
sS'a mango in breakfast'
p2456
I1
sS'16.7999992370605px;">&nbsp;</div>\r\n<div style="box-sizing: border-box; margin:'
p2457
I184
sS'/>Keep up with it&nbsp;<img'
p2458
I1
sS'to take a U-turn'
p2459
I5
sS'14px; line-height: 16.7999992370605px;">Bela Gupta,'
p2460
I11
sS'font-family: Roboto, sans-serif;">*boiled corn'
p2461
I2
sS'the the most suitable'
p2462
I153
sS'New Roman&quot;;mso-bidi-font-family:Arial;\r\ncolor:#222222">&nbsp;</span></p>\r\n\r\n<p class="MsoNormal" style="margin-bottom:'
p2463
I1
sS'easy to learn, you'
p2464
I171
sS'padding: 0px; border: 0px;'
p2465
I1549
sS'line-height: 21.6000003814697px;">Relishing your favorite'
p2466
I3
sS'Heya Buddy,Weekend Health Tip:Weekend'
p2467
I19
sS'to hit your target.'
p2468
I62
sS'Peanut butterA cup of'
p2469
I1
sS'it solved and have'
p2470
I1
sS'to figure out if'
p2471
I8
sS'Your body thinks that'
p2472
I46
sS'RELAXATION time  6)Do'
p2473
I16
sS'would like to know'
p2474
I864
sS'chaat</span><br style="box-sizing: border-box; margin:'
p2475
I1
sS'do. But how ?'
p2476
I1
sS'and friends, a'
p2477
I76
sS'the \r\nlegs moving Run,'
p2478
I1
sS'to your food when'
p2479
I24
sS'your food and water'
p2480
I341
sS'or soy nuts</span><br style="box-sizing:'
p2481
I1
sS'have ORS, eat lots'
p2482
I1
sS'it with me. I'
p2483
I5
sS'Hey Coach,<br /><br />I'
p2484
I1
sS'to hear from you..'
p2485
I206
sS'padding: 0px;">1.Don\x83??t be fooled'
p2486
I1
sS'is preventing you from'
p2487
I36
sS"too!   Here's"
p2488
I12
sS'font-family: Roboto, sans-serif;"></div><div><font color="#5d5d5d"'
p2489
I6
sS'margin: 0px; padding: 0px;'
p2490
I6302
sS'2014. So here comes'
p2491
I40
sS'Plzzzz share your updates,still'
p2492
I1
sS'chopped veggies</span><br style="box-sizing: border-box;'
p2493
I3
sS'style="font-family:&quot;Verdana&quot;,&quot;sans-serif&quot;;mso-fareast-font-family:&quot;Times New Roman&quot;;\r\nmso-bidi-font-family:Arial;color:#222222">Hope you'
p2494
I1
sS'style="font-family:&quot;Verdana&quot;,&quot;sans-serif&quot;;mso-fareast-font-family:&quot;Times New Roman&quot;;\r\nmso-bidi-font-family:Arial;color:#1155CC">http://bit.ly/1EAMpVQ</span></a><span style="font-family:&quot;Verdana&quot;,&quot;sans-serif&quot;;mso-fareast-font-family:&quot;Times'
p2495
I1
sS'achieving this goal. I'
p2496
I12
sS'an introductory call to'
p2497
I272
sS'on! Learn some instant'
p2498
I37
sS'Roboto, sans-serif; font-size: 13.3333339691162px;">*boiled'
p2499
I1
sS'is fun, it has'
p2500
I12
sS'Avoid foods with a'
p2501
I180
sS'you to check out'
p2502
I36
sS'directly proportional to delay'
p2503
I74
sS'is loading!&nbsp;???\x9f&nbsp;<br><br>Which workouts/activities are'
p2504
I1
sS'step counts since last'
p2505
I1
sS'call to start the'
p2506
I2
sS'SMART CHOICE you make'
p2507
I105
sS'Choose breads, cereals, granola'
p2508
I180
sS'days, your skin replaces'
p2509
I63
sS'I would like you'
p2510
I458
sS'my dashboard.<img class="imageViewerInLarge" src="http://goqii-app.s3.amazonaws.com/conversation/1413798273_100X100.png"'
p2511
I1
sS'with crushed nuts</span></div>\r\n<div><span style="color:'
p2512
I2
sS'listening to GOQii anthem'
p2513
I167
sS"days.. What's the matter"
p2514
I1
sS'based puran poli and'
p2515
I30
sS'board!! I would love'
p2516
I6
sS'font-family: Roboto, sans-serif;"></div><div><span style="color:'
p2517
I4
sS'GOQii Presentation, we will'
p2518
I298
sS'have a great Willpower'
p2519
I44
sS'April,here comes the extension'
p2520
I3
sS'some stretches to avoid'
p2521
I2
sS'king, nutrition is Queen.'
p2522
I20
sS'your band data.. Please'
p2523
I13
sS'starving. So when you'
p2524
I46
sS'this video:&nbsp;</span><a href="http://bit.ly/1smgaiI" target="_blank"><span'
p2525
I2
sS'0px; padding: 0px;">2. The'
p2526
I2
sS'not too difficult.. Grab'
p2527
I29
sS'20px;"><div class="msg-box pull-right" style="box-sizing:'
p2528
I297
sS'would love to connect'
p2529
I205
sS'<img class="imageViewerInLarge" src="http://goqii-app.s3.amazonaws.com/user/user/s_1426669929.jpg" alt=""'
p2530
I1
sS'16.7999992370605px;">I want to figure'
p2531
I6
sS'salad with paneer pieces\r\n<div><br'
p2532
I1
sS"It's a weekend.. Rise"
p2533
I22
sS'to get back on'
p2534
I240
sS'weekend.. Rise and Shine'
p2535
I22
sS'src="http://goqii-app.s3.amazonaws.com/conversation/1413798273_100X100.png" alt="" /><br /><br'
p2536
I1
sS'baby.</p>\r\n<p>On Saturday, you gave'
p2537
I1
sS'chanas with chopped veggies</span><br'
p2538
I1
sS'we shall aim to'
p2539
I66
sS'initial; background-attachment: initial; background-size:'
p2540
I727
sS'If it doesn\x83??t challenge'
p2541
I33
sS'together and you have'
p2542
I42
sS'try to daily upload'
p2543
I1
sS'Roman&quot;;mso-bidi-font-family:Arial;\r\ncolor:#222222">&nbsp;</span></p>\r\n\r\n<p class="MsoNormal" style="margin-bottom: 0.0001pt;'
p2544
I1
sS'I would be really'
p2545
I63
sS'and are getting familiarized'
p2546
I7
sS"I'm chatting through player"
p2547
I1
sS'to remember these 5'
p2548
I179
sS"explains that it's about"
p2549
I24
sS'all your support and'
p2550
I77
sS'intake of fruits and'
p2551
I27
sS'a toned body keeping'
p2552
I7
sS'out door games, dancing'
p2553
I19
sS'exciting as we go'
p2554
I42
sS'a great enthusiasm from'
p2555
I6
sS'of whole grain impostors.'
p2556
I51
sS'its very good source'
p2557
I1
sS'and shift the gear'
p2558
I63
sS'ingredient list. The more'
p2559
I177
sS'GOQii, watch this video:&nbsp;</span><a'
p2560
I2
sS'sans-serif;">*whole wheat grilled veggie'
p2561
I2
sS'you for an introductory'
p2562
I200
sS'Hey Player,You know Player...'
p2563
I16
sS'can u see my'
p2564
I3
sS'12px; line-height: 1; color:'
p2565
I314
sS'the time when we'
p2566
I39
sS'Roboto, sans-serif; font-size: 13.3333339691162px;">I'
p2567
I1
sS'Rise and Shine and'
p2568
I22
sS'with all the Energy'
p2569
I167
sS'Healthy weekend  1)DO'
p2570
I16
sS'color="#5d5d5d" face="Roboto, sans-serif" style="box-sizing:'
p2571
I29
sS'other jaggery or dryfruit'
p2572
I21
sS'eat one of those'
p2573
I44
sS"action-packed week!! Let's get"
p2574
I105
sS'weekend going?</span><br style="box-sizing: border-box;'
p2575
I3
sS'see your band data..'
p2576
I15
sS'of dryfruits (dates, raisins,'
p2577
I2
sS'style="font-family:&quot;Verdana&quot;,&quot;sans-serif&quot;;\r\nmso-fareast-font-family:&quot;Times New Roman&quot;;mso-bidi-font-family:Arial;\r\ncolor:#222222">Refer to'
p2578
I1
sS'external invaders (pollutants and'
p2579
I61
sS'13.3333339691162px;">*roasted makhanas</span><br style="box-sizing: border-box;'
p2580
I1
sS'0px !important; max-height: 64px'
p2581
I461
sS'lifestyle and routine. To'
p2582
I7
sS'to analyze it.. Thus,'
p2583
I22
sS'in app calling at'
p2584
I1
sS'counts since last 2'
p2585
I1
sS'rightly said that Willpower'
p2586
I44
sS'with a LONG INGREDIENT'
p2587
I163
sS'updating your data.<br>Please do'
p2588
I1
sS'line-height: 1.2; font-family: Roboto,'
p2589
I137
sS'concept and also help'
p2590
I6
sS'to share with you'
p2591
I640
sS'and returned to us'
p2592
I12
sS'New Roman&quot;;mso-bidi-font-family:Arial;\r\ncolor:#222222">I look forward'
p2593
I1
sS'list. The more attractive'
p2594
I177
sS'move further with our'
p2595
I1
sS'you go,you are still'
p2596
I20
sS'class="imageViewerInLarge" src="http://goqii-app.s3.amazonaws.com/user/user/s_1426740460.jpg" alt="" data-mce-src="http://goqii-app.s3.amazonaws.com/user/user/s_1426740460.jpg">'
p2597
I1
sS'Roboto, sans-serif; font-size: 18px;'
p2598
I2237
sS'Quantity of the workout.&nbsp;<br'
p2599
I18
sS'MakhanasRoasted pumpkin seeds and'
p2600
I1
sS'href="http://bit.ly/1EAMpVQ" target="_blank"><span style="font-family:&quot;Verdana&quot;,&quot;sans-serif&quot;;mso-fareast-font-family:&quot;Times New'
p2601
I1
sS'13.3333339691162px;">I have listed down'
p2602
I1
sS'shift the gear to'
p2603
I15
sS'every 28 days, your'
p2604
I57
sS'introductory call to take'
p2605
I191
sS'the formal coaching date'
p2606
I42
sS'sans-serif; font-size: 13.3333339691162px;" /><br'
p2607
I1
sS'activity Satish!<br /><br />Keep'
p2608
I1
sS'initial;"><span style="font-family:&quot;Verdana&quot;,&quot;sans-serif&quot;;\r\nmso-fareast-font-family:&quot;Times New Roman&quot;;mso-bidi-font-family:Arial;\r\ncolor:#222222">&nbsp;<o:p></o:p></span></p>\r\n\r\n<p'
p2609
I1
sS'routine via our GOQii'
p2610
I259
sS'0px; color: rgb(54, 54,'
p2611
I306
sS'font-family: Roboto, sans-serif;">*fruit yogurt'
p2612
I2
sS'I am extremely glad\r\nto'
p2613
I1
sS"self?</div><div><br></div><div>Why delay? Let's take"
p2614
I9
sS'physically better through exercise,'
p2615
I117
sS'Will get back by'
p2616
I1
sS'plan for today? &nbsp;'
p2617
I1
sS"Today's Tip:\x83?\x9b\tDon\x83??t worry if"
p2618
I19
sS'how slow you go,you'
p2619
I20
sS'anthem https://soundcloud.com/goqii/betheforce-goqii that would'
p2620
I84
sS'know, I can for'
p2621
I1
sS'share your current workout'
p2622
I3
sS"it's about the Quality"
p2623
I24
sS'take you through the'
p2624
I346
sS'Learn some instant cues'
p2625
I37
sS'to hear from you'
p2626
I2144
sS'results.</span><br style="box-sizing: border-box; margin:'
p2627
I10
sS'my colours!</div>\r\n<div style="box-sizing: border-box;'
p2628
I9
sS'Roboto, sans-serif; font-size: 14px;'
p2629
I3829
sS'solved and have us'
p2630
I1
sS'said that Willpower is'
p2631
I44
sS'positive.So if you ask'
p2632
I1
sS'margin: 0px; padding: 0px;">If'
p2633
I24
sS'target="_blank"><span style="font-family:&quot;Verdana&quot;,&quot;sans-serif&quot;;mso-fareast-font-family:&quot;Times New Roman&quot;;\r\nmso-bidi-font-family:Arial;color:#1155CC">http://bit.ly/1EAMpVQ</span></a><span'
p2634
I1
sS'the force\x83??<o:p></o:p></span></p>\r\n\r\n<p class="MsoNormal"><span style="font-family:&quot;Verdana&quot;,&quot;sans-serif&quot;">&nbsp;</span></p>'
p2635
I1
sS'we will discuss\r\nthis on'
p2636
I1
sS'would like to congratulate\r\nyou'
p2637
I1
sS'had a mango in'
p2638
I1
sS'this goal. I would'
p2639
I12
sS'Mitz.. u r in'
p2640
I1
sS':No Matter how slow'
p2641
I20
sS'able to analyze it..'
p2642
I22
sS'make our plate appealing'
p2643
I24
sS'and you are not'
p2644
I55
sS'0px; color: rgb(93, 93,'
p2645
I2792
sS'for the WEEK AHEAD'
p2646
I38
sS'Corn chatWhole wheat Bread'
p2647
I1
sS'21.6000003814697px;" /><br style="box-sizing: border-box;'
p2648
I530
sS'and a happier you.'
p2649
I29
sS'want to figure out'
p2650
I7
sS'1)DO YOUR WORKOUTS'
p2651
I38
sS'as you should. Your'
p2652
I46
sS'for the Action? :)'
p2653
I22
sS'in the Lumia yet.'
p2654
I1
sS'style="margin: 12pt 0in 0.0001pt;'
p2655
I1
sS"Good Morning Player,Today's Health"
p2656
I25
sS'that a halt in'
p2657
I5
sS'having 2 fruits???\x9f&nbsp; today'
p2658
I1
sS'been great engaging with'
p2659
I42
sS'font-size: 14px; line-height: 1.2;">how'
p2660
I5
sS'0px;"><div style="box-sizing: border-box; margin:'
p2661
I13
sS'I want to highlight'
p2662
I53
sS'alt="" data-mce-src="http://goqii-app.s3.amazonaws.com/user/user/s_1424510585.jpg" style="box-sizing: border-box;'
p2663
I1
sS'of antioxidants from the'
p2664
I1
sS'the fat levels at'
p2665
I7
sS'0px;" /><br style="box-sizing: border-box;'
p2666
I638
sS'R u chatting through'
p2667
I1
sS'any band/app related issues'
p2668
I1
sS'and high fructose corn'
p2669
I186
sS'when you eat again,'
p2670
I46
sS'results after a day'
p2671
I106
sS'margin: 0px; padding: 0px;"'
p2672
I2732
sS'sans-serif; font-size: 13.3333339691162px;">*at times'
p2673
I1
sS"Morning Player,Today's Health Tip:Rather"
p2674
I25
sS'which 2 fruits did'
p2675
I1
sS'14px; line-height: 16.7999992370605px;">&nbsp;sometimes inspiration'
p2676
I2
sS'(pollutants and other toxic'
p2677
I61
sS'16.7999992370605px;">Hope we aren\'t moving'
p2678
I1
sS'font-size: 14px; line-height: 16.7999992370605px;">,</span><span'
p2679
I1
sS'your food when nature'
p2680
I24
sS'it going?</span><br style="box-sizing: border-box;'
p2681
I5
sS'Thank you :)<br /><br'
p2682
I1
sS'our plate appealing but'
p2683
I24
sS'Roasted,Steamed) #betheforce  --'
p2684
I19
sS'to do some stretches'
p2685
I3
sS'goals. Since your goal'
p2686
I45
sS'breads, cereals, granola bars,'
p2687
I180
sS'Roboto, sans-serif;">*roasted chickpeas or'
p2688
I2
sS'padding: 0px; font-size: 14px;'
p2689
I497
sS'month of April,here comes'
p2690
I3
sS'GOQii concept and also'
p2691
I7
sS'to daily upload your'
p2692
I1
sS'background-color: transparent !important;" title="Grinning'
p2693
I56
sS'or with someone else.<br>???\x9f&nbsp;'
p2694
I1
sS'more data you pour'
p2695
I22
sS'blog post on interval'
p2696
I24
sS'14px; line-height: 16.7999992370605px;">If we'
p2697
I9
sS'fruits???\x9f&nbsp; today preferably&nbsp; during'
p2698
I1
sS'Phase. You are always'
p2699
I26
sS'If you plan&nbsp; to'
p2700
I14
sS'black chanas with chopped'
p2701
I3
sS'a first step now.What'
p2702
I9
sS'sans-serif; font-size: 13.3333339691162px;">*roasted makhanas</span><br'
p2703
I1
sS'margin: 0px; padding: 0px;"><div'
p2704
I19
sS'post on interval training,'
p2705
I24
sS'just aim to be'
p2706
I25
sS'while purchasing the food.<br'
p2707
I27
sS'HUNGRY to a party'
p2708
I56
sS'Roboto, sans-serif;">*boiled corn chaat</span></div>\r\n<div><span'
p2709
I2
sS'Mitali which 2 fruits'
p2710
I1
sS'to imbibe more healthy'
p2711
I5
sS'and just eat one'
p2712
I44
sS'1.2em !important; display: inline'
p2713
I153
sS'through the GOQii concept'
p2714
I206
sS'<div class="row text">While\r\n you'
p2715
I1
sS'workouts/activities are lined up'
p2716
I1
sS'can analyse your data..'
p2717
I4
sS'of sugar)</div><div style="box-sizing: border-box;'
p2718
I4
sS'pieces!! :) I am'
p2719
I44
sS'extension period for our'
p2720
I5
sS'you are exploring the'
p2721
I40
sS'and returned to you'
p2722
I104
sS"/>Let's get regular with"
p2723
I1
sS'band data.. Please start'
p2724
I13
sS'try&nbsp; having 2 fruits???\x9f&nbsp;'
p2725
I1
sS'or even after a'
p2726
I106
sS'be multiplied 10 times'
p2727
I118
sS'later date. :)'
p2728
I74
sS'band and the GOQii'
p2729
I7
sS'glad to see your'
p2730
I137
sS'package. Look for the'
p2731
I144
sS"I am sure it's"
p2732
I64
sS"Hi Buddy! It's been"
p2733
I42
sS'kick-started by listening to'
p2734
I167
sS'0px; padding: 0px;">If you'
p2735
I22
sS'0px; float: right; width:'
p2736
I576
sS'listening to music ....<br>How'
p2737
I1
sS'Hey Mitali<span style="color: rgb(93,'
p2738
I1
sS'14px; font-family: Roboto, sans-serif;">weekend'
p2739
I1
sS'can plan out our'
p2740
I49
sS'hi, thanks for connecting!Glad'
p2741
I1
sS'Grilled SandwichRoasted flavoured Chanas/Chickpeas/Soya'
p2742
I1
sS'of the GOQii family'
p2743
I64
sS'about\r\nyour lifestyle we can'
p2744
I1
sS'say about my All'
p2745
I12
sS'with you....Exercise is a'
p2746
I20
sS'/>Glad to see you'
p2747
I197
sS'sans-serif;"></div><div><font color="#5d5d5d" face="Roboto, sans-serif"'
p2748
I6
sS'core is not getting'
p2749
I4
sS'you plan&nbsp; to play'
p2750
I33
sS'getting an adequate supply'
p2751
I7
sS'14px; line-height: 16.7999992370605px;">How have'
p2752
I33
sS'curd with chopped fruits'
p2753
I4
sS'you planned to rev'
p2754
I4
sS'data.. Please start syncing'
p2755
I13
sS'line-height: 16.7999992370605px;">&nbsp;</span><span style="box-sizing: border-box;'
p2756
I24
sS'a better self?</div><div><br></div><div>Why delay?'
p2757
I9
sS'few days\r\nincluding your current'
p2758
I1
sS'cues and you can'
p2759
I37
sS'before you head out'
p2760
I201
sS'is always the BIGGEST!'
p2761
I163
sS'initial; background-clip: initial; background-position:'
p2762
I736
sS'it izz. so lets'
p2763
I64
sS'Roman&quot;;\r\nmso-bidi-font-family:Arial;color:#222222"><o:p></o:p></span></p>\r\n\r\n<p class="MsoNormal" style="margin-bottom: 0.0001pt;'
p2764
I1
sS'Tip:Weekend time it izz.'
p2765
I19
sS'Tips for a Healthy'
p2766
I38
sS'I can for sure'
p2767
I1
sS'font-size: 17.7777786254883px; line-height: 24.0000019073486px;">Do'
p2768
I1
sS'Rather than aiming to'
p2769
I90
sS'chat / Corn chatWhole'
p2770
I1
sS'impostors. Choose breads, cereals,'
p2771
I51
sS'<div><br></div><div>We are introducing special'
p2772
I1
sS'the sim to get'
p2773
I1
sS'towards achieving this goal.'
p2774
I12
sS'salads everyday.. which would'
p2775
I61
sS'style="line-height: 1.2; color: rgb(93,'
p2776
I3
sS'in a healthy way'
p2777
I95
sS'these 5 simple cues'
p2778
I37
sS'sans-serif;"></div><div><span style="color: rgb(93, 93,'
p2779
I4
sS'seedsCorn salad with paneer'
p2780
I1
sS'rev up your weekend?</span>'
p2781
I5
sS'are introducing special summer'
p2782
I5
sS'time when we visit'
p2783
I32
sS'you-</span></div>\r\n<div><span style="color: #5d5d5d; font-family:'
p2784
I2
sS'class="row text">While\r\n you have'
p2785
I1
sS'13.3333339691162px;" /><br style="box-sizing: border-box;'
p2786
I1
sS'16.7999992370605px;">We need to get'
p2787
I4
sS'!important; -webkit-perspective: none !important;'
p2788
I466
sS'14px; line-height: 16.7999992370605px;">&nbsp;</div>\r\n<div style="box-sizing:'
p2789
I176
sS'300px; text-align: center; font-size:'
p2790
I472
sS'using the GOQii band'
p2791
I9
sS'my walks listening to'
p2792
I1
sS'line-height: 16.7999992370605px;">,</span><span style="box-sizing: border-box;'
p2793
I1
sS"the action-packed week!! Let's"
p2794
I105
sS'GOQii Family! Moreover, you'
p2795
I48
sS'is getting an adequate'
p2796
I7
sS'the Right Foods..which will'
p2797
I22
sS'our exciting journey at'
p2798
I126
sS'21.6000003814697px;">How\'s your weekend going?</span><br'
p2799
I3
sS"do. Thus, it's a"
p2800
I57
sS'serving on the label.<br'
p2801
I52
sS'with peanut butter</span><br style="box-sizing:'
p2802
I1
sS'share how you feel'
p2803
I1
sS'YOUR WORKOUTS in the'
p2804
I56
sS'evening snacking options for'
p2805
I3
sS'16.7999992370605px;">I eat my colours!</div>\r\n<div'
p2806
I9
sS'food.<br style="box-sizing: border-box; margin:'
p2807
I1
sS'back on the wagon'
p2808
I52
sS'lifestyle. :)'
p2809
I35
sS'and Peanut butterA cup'
p2810
I1
sS'swirl all over. ????&nbsp;<br'
p2811
I1
sS'finding it difficult to'
p2812
I101
sS"last 2 days.. What's"
p2813
I1
sS'imbibe more healthy habits.</div><div><br></div><div>https://goqii.com/renewals&nbsp;</div>'
p2814
I2
sS'you to avoid the'
p2815
I23
sS'have been emphasizing on'
p2816
I24
sS'initial;"><span style="font-family:&quot;Verdana&quot;,&quot;sans-serif&quot;;mso-fareast-font-family:&quot;Times New Roman&quot;;\r\nmso-bidi-font-family:Arial;color:#222222">Hope'
p2817
I1
sS'/><br />Waiting to hear'
p2818
I80
sS'10 years. Your body'
p2819
I57
sS'slows down and you'
p2820
I46
sS'get it resolved and'
p2821
I1
sS'foods with a LONG'
p2822
I163
sS'that be a positive'
p2823
I1
sS'and eat.(Grilled, Poached, Roasted,Steamed)'
p2824
I51
sS'Hi Kishor,<br /><br />Waiting'
p2825
I1
sS'class="row date-box" style="box-sizing: border-box;'
p2826
I498
sS'pumpkin seeds and sunflower'
p2827
I3
sS'have to say about'
p2828
I21
sS'itself. Your liver, 5'
p2829
I57
sS'New Roman&quot;;\r\nmso-bidi-font-family:Arial;color:#222222">Welcome to GOQii'
p2830
I1
sS'Please start syncing it!'
p2831
I13
sS'perfect, we shall aim'
p2832
I65
sS'together to make sure'
p2833
I71
sS'requirement as per your'
p2834
I131
sS'D-A-N-C-E! In fact, Everybody'
p2835
I12
sS'your body metabolism slows'
p2836
I46
sS'src="chrome-extension://cahedbegdkagmcjfolhdlechbkeaieki/images/apple/1f600.png" alt="????" /><br style="box-sizing:'
p2837
I15
sS'Nice start of the'
p2838
I4
sS'this link for a'
p2839
I270
sS'remember these 5 simple'
p2840
I179
sS'App, and are getting'
p2841
I7
sS'would be glad to'
p2842
I98
sS'Life Story - https://www.youtube.com/watch?v=3Fck3MfuqU8</div>'
p2843
I12
sS'sans-serif; font-size: 17.7777786254883px; line-height:'
p2844
I86
sS'to GOQii anthem https://soundcloud.com/goqii/betheforce-goqii'
p2845
I100
sS"be ( example: children's"
p2846
I151
sS'chopped veggies</span></div>\r\n<div><span style="color: #5d5d5d;'
p2847
I2
sS'GOQii application.</span><br style="box-sizing: border-box;'
p2848
I3
sS'24.0000019073486px;">Do they sound good'
p2849
I1
sS'Your body makes these'
p2850
I63
sS'sure you hit those'
p2851
I41
sS'a  part of'
p2852
I40
sS'fact, Everybody should Dance!!'
p2853
I12
sS'line-height: 16.7999992370605px;">Let\'s calculate the'
p2854
I7
sS'updates,still waiting to hear'
p2855
I1
sS'Hey Mitali which 2'
p2856
I1
sS'avoid the wrong ones!'
p2857
I22
sS'bones, 10 years. Your'
p2858
I57
sS'16.7999992370605px;">how\'s it going?</span><br style="box-sizing:'
p2859
I4
sS'a positive or negative.</p>\r\n<p>Ok?:)</p>'
p2860
I1
sS'can even have idli/dosa'
p2861
I3
sS'0px;">It\'s easy to learn,'
p2862
I1
sS'and sunflower seedsCorn salad'
p2863
I1
sS'based on this we'
p2864
I58
sS'agents to your food'
p2865
I24
sS'the product is made'
p2866
I186
sS'preventing you from updating'
p2867
I18
sS'Since your goal is'
p2868
I59
sS'reached your half of'
p2869
I1
sS'Band\r\nand App, and are'
p2870
I1
sS'inherit !important; width: 1.2em'
p2871
I157
sS'weekend is loading!&nbsp;???\x9f&nbsp;<br><br>Which workouts/activities'
p2872
I1
sS'date. :)  What'
p2873
I25
sS'SLEEP  8)Prepare for'
p2874
I16
sS'font-size: 14px; line-height: 16.7999992370605px;">PROTEIN.</strong><div'
p2875
I7
sS'half of the target'
p2876
I6
sS'margin: 0px; padding: 0px;">1.Don\x83??t'
p2877
I1
sS"what's your current body"
p2878
I11
sS'mostly of sugar)</div><div style="box-sizing:'
p2879
I4
sS'\r\nmindful while enjoying the'
p2880
I21
sS'period for our continued'
p2881
I5
sS'!important; border: 0px none;'
p2882
I289
sS'in shopping!</span><div class="row control-group"'
p2883
I1
sS'border: 0px none; vertical-align:'
p2884
I451
sS'are, then we need'
p2885
I5
sS'if you start syncing'
p2886
I32
sS"Hey Player... Here's a"
p2887
I25
sS'line-height: 1.2;"><br style="box-sizing: border-box;'
p2888
I56
sS"What's the matter buddy?"
p2889
I1
sS'first step now.What say?</div>'
p2890
I5
sS'for the day'
p2891
I442
sS'I hope you are'
p2892
I653
sS'if your intake is'
p2893
I7
sS'initial;"><span style="font-family:&quot;Verdana&quot;,&quot;sans-serif&quot;;\r\nmso-fareast-font-family:&quot;Times New Roman&quot;;mso-bidi-font-family:Arial;\r\ncolor:#222222">&nbsp;</span></p>\r\n\r\n<p'
p2894
I1
sS'most important macronutrient-&nbsp;</span><strong style="box-sizing:'
p2895
I6
sS'buddy, every SMART CHOICE'
p2896
I99
sS'Coach what should I'
p2897
I1
sS'the GOQii application.</span><br style="box-sizing:'
p2898
I3
sS'a day or even'
p2899
I106
sS'putting on bad weight'
p2900
I171
sS'made up mostly of'
p2901
I180
sS'getting it solved and'
p2902
I1
sS'soy nuts</span><br style="box-sizing: border-box;'
p2903
I1
sS'0em !important; border: 0px'
p2904
I289
sS'would like to share'
p2905
I481
sS'have a toned body'
p2906
I125
sS'havent installed in the'
p2907
I1
sS'healthier lifestyle. :)'
p2908
I28
sS'fabulous weekend buddy! Keep'
p2909
I22
sS'!important; resize: none !important;'
p2910
I466
sS'bars, crackers &amp; pasta'
p2911
I180
sS'worked towards achieving this'
p2912
I9
sS'the GOQii family and'
p2913
I63
sS'meeting you today Mitra!!&nbsp;<br><br>Eager'
p2914
I1
sS'!important; background-color: transparent !important;"'
p2915
I346
sS'Mitra,&nbsp;<span style="box-sizing: border-box; margin:'
p2916
I1
sS'2014, for the CONSUMER'
p2917
I76
sS'we were yesterday. What'
p2918
I19
sS'in afternoon..what to do?'
p2919
I1
s.