(dp0
S''
p1
I191572
sS'!important; outline-style: none'
p2
I466
sS'#5d5d5d; font-family: Roboto,'
p3
I3131
sS'related issues which'
p4
I2
sS'got to remember'
p5
I179
sS'mode.</span><br style="box-sizing: border-box;'
p6
I9
sS'for sure help'
p7
I1
sS'-webkit-perspective: none !important;'
p8
I466
sS'style="color: rgb(85, 85,'
p9
I43
sS'rightly said that'
p10
I351
sS'processed and packaged'
p11
I37
sS'alone or with'
p12
I1
sS'healthy.Your subscription gets'
p13
I4
sS'Kishor.<img src="http://goqii-app.s3.amazonaws.com/emoticons/smiley-laughing.gif" alt=""'
p14
I1
sS'glad\r\nto have you'
p15
I1
sS'to work together'
p16
I32
sS'make it happen!'
p17
I119
sS'style="font-family:&quot;Verdana&quot;,&quot;sans-serif&quot;;mso-fareast-font-family:&quot;Times New Roman&quot;;\r\nmso-bidi-font-family:Arial;color:#222222"><o:p></o:p></span></p>\r\n\r\n<p'
p18
I1
sS'you on board.<o:p></o:p></span></p>\r\n\r\n<p'
p19
I1
sS'in your step'
p20
I54
sS'truly believe in'
p21
I51
sS"Player,Today's Health Tip:You"
p22
I16
sS'sans-serif; font-size: 13.3333339691162px;">*roasted'
p23
I1
sS'it izz. so'
p24
I64
sS"Player... Here's a"
p25
I25
sS'very smooth. Let'
p26
I1
sS'and a happier'
p27
I61
sS'16.7999992370605px;">&nbsp;I have an'
p28
I9
sS'line-height: 16.7999992370605px;"><span style="color:'
p29
I747
sS'after a day'
p30
I121
sS'try in app'
p31
I1
sS'Life! I am'
p32
I103
sS'93); line-height: 1.2;"><br'
p33
I11
sS'healthy way'
p34
I111
sS'are shining my'
p35
I2
sS'padding: 0px; color:'
p36
I5805
sS'you make is'
p37
I106
sS'Shine and Stretch...'
p38
I22
sS'.How are you'
p39
I102
sS'try my best'
p40
I60
sS'my food plate&nbsp;'
p41
I1
sS'you gave me'
p42
I7
sS'of antioxidants from'
p43
I1
sS'idli/dosa with tomato'
p44
I3
sS'How was your'
p45
I3488
sS'up with all'
p46
I169
sS'1.2;"><div class="row control-group"'
p47
I25
sS'14px; color: rgb(93,'
p48
I368
sS'grain impostors. Choose'
p49
I51
sS'relatives and friends,'
p50
I76
sS'for the sim'
p51
I2
sS'my new stuff'
p52
I16
sS'Rather than aiming'
p53
I90
sS'line-height: 16.7999992370605px;">&nbsp;sometimes inspiration'
p54
I2
sS'the best of'
p55
I65
sS'class="pull-right timestampchecker 1424530472"'
p56
I1
sS'<br>Well today is'
p57
I1
sS'target steps for'
p58
I1
sS'your loved ones,'
p59
I43
sS'Hi Kishor,<br /><br'
p60
I6
sS'you today Mitra!!&nbsp;<br><br>Eager'
p61
I1
sS'be ( example:'
p62
I151
sS'than you were'
p63
I25
sS'am extremely glad\r\nto'
p64
I1
sS'font-family: Roboto, sans-serif;">*fruit'
p65
I2
sS'crushed nuts</span><br style="box-sizing:'
p66
I3
sS'to GOQii Life!'
p67
I213
sS'Dipti</p>\r\n<p>Yes I will'
p68
I1
sS'SandwichRoasted flavoured Chanas/Chickpeas/Soya'
p69
I1
sS'/>Why add those'
p70
I7
sS'for our continued'
p71
I5
sS'Special Member of'
p72
I76
sS'link for a'
p73
I303
sS'the the most'
p74
I154
sS'and Stretch... Find'
p75
I22
sS'and other toxic'
p76
I61
sS'Tip:You may not'
p77
I16
sS'aim to be'
p78
I98
sS'the time when'
p79
I96
sS'the formal coaching'
p80
I45
sS'just because Dancing'
p81
I12
sS'with at least'
p82
I205
sS'see you active'
p83
I59
sS'line-height: 16.7999992370605px;">How have'
p84
I33
sS":) We'll be"
p85
I101
sS'face="Roboto, sans-serif" style="box-sizing:'
p86
I29
sS'for our walks'
p87
I1
sS'exciting as we'
p88
I42
sS'do some stretches'
p89
I5
sS'dancing , taking'
p90
I19
sS'nature has gifted'
p91
I24
sS'you eat...the amount'
p92
I57
sS'not burning calories'
p93
I46
sS'sleep data too&nbsp;'
p94
I1
sS'U-turn right away!!&nbsp;</span><br'
p95
I1
sS'weight and check'
p96
I7
sS'colours!</div>\r\n<div style="box-sizing: border-box;'
p97
I9
sS'sambhar.</span></div>\r\n<div><span style="color: #5d5d5d;'
p98
I2
sS'Hello there! :)'
p99
I28
sS'would like you'
p100
I496
sS'CHOICE you make'
p101
I105
sS'started with a'
p102
I114
sS'veggie sandwich</span><br style="box-sizing:'
p103
I1
sS'Quantity of the'
p104
I25
sS'your weekend going?</span><br'
p105
I3
sS'#betheforce'
p106
I1998
sS'than we were'
p107
I65
sS'keep the \r\nlegs'
p108
I1
sS'least 2 grams'
p109
I186
sS'height: auto;"></div></div></div></div><div class="row'
p110
I1
sS'updating your data.<br>Please'
p111
I1
sS'Good morning Vishal.'
p112
I1
sS'great enthusiasm from'
p113
I6
sS'day and make'
p114
I126
sS'taking a positive'
p115
I7
sS"What's the matter"
p116
I9
sS'when nature has'
p117
I24
sS'Hi Mitali<span style="color:'
p118
I1
sS'Here begins the'
p119
I105
sS'the morning before'
p120
I64
sS'(food and water),\r\nfitness'
p121
I2
sS'on the Couch.'
p122
I20
sS'Be the force\x83??<o:p></o:p></span></p>\r\n\r\n<p'
p123
I1
sS'of your body.&nbsp;</div><div'
p124
I7
sS'New Roman&quot;;mso-bidi-font-family:Arial;\r\ncolor:#1155CC">http://bit.ly/1smgaiI</span></a><span style="font-family:&quot;Verdana&quot;,&quot;sans-serif&quot;;\r\nmso-fareast-font-family:&quot;Times'
p125
I1
sS'Don,t forget to'
p126
I1
sS'Roboto, sans-serif;">*fruit yogurt'
p127
I2
sS'padding: 0px;"><div style="box-sizing:'
p128
I13
sS'your body weight'
p129
I159
sS'\r\nlegs moving Run,'
p130
I1
sS'out my new'
p131
I10
sS'slows down and'
p132
I47
sS'line-height: 16.7999992370605px;"><br style="box-sizing:'
p133
I1818
sS'market tomorrow i.e.'
p134
I76
sS'2 fruits did'
p135
I2
sS'on our call.&nbsp;</span><a'
p136
I7
sS'nuts</span><br style="box-sizing: border-box;'
p137
I3
sS'you hit those'
p138
I41
sS'skip meals, your'
p139
I46
sS'yeah.. speak to'
p140
I1
sS'a little more'
p141
I423
sS'!important;" title="Grinning Face"'
p142
I62
sS'salad with paneer'
p143
I25
sS'my walks listening'
p144
I1
sS'on the list'
p145
I236
sS'Roasted,Steamed) #betheforce'
p146
I76
sS'Thus, enabling us'
p147
I22
sS'if you ask'
p148
I14
sS'more information about\r\nyour'
p149
I1
sS'always going to'
p150
I78
sS'0px; padding: 0px;">4.'
p151
I14
sS'feel very sleep'
p152
I1
sS'would fill you'
p153
I167
sS'in results.</span><br style="box-sizing:'
p154
I1
sS'padding: 0px; background-image:'
p155
I663
sS'/><br />Did circuit'
p156
I1
sS'nutrition is Queen.'
p157
I20
sS'by playing out'
p158
I89
sS'0px;"></div><div style="box-sizing: border-box;'
p159
I901
sS'delete my vishalgondal@hotmail.com'
p160
I1
sS'is to protect'
p161
I29
sS'special summer offer'
p162
I5
sS'walks with friends'
p163
I19
sS'will be happy'
p164
I36
sS'soon.&nbsp;</span><div class="row date-box"'
p165
I1
sS'skin replaces itself.'
p166
I63
sS'routine. To begin'
p167
I7
sS'Good morning Mitali'
p168
I9
sS'Roman&quot;;\r\nmso-bidi-font-family:Arial;color:#222222">Once we have'
p169
I1
sS'Gym.&nbsp;<br /><br />Did'
p170
I1
sS'you can do'
p171
I743
sS'consistently! When can'
p172
I22
sS'when you eat'
p173
I212
sS'0em !important; padding:'
p174
I461
sS'it with me.'
p175
I66
sS'text">While\r\n you have'
p176
I1
sS'a healthier lifestyle.'
p177
I153
sS'which helps us'
p178
I8
sS'to relax.. Try'
p179
I22
sS'a positive or'
p180
I24
sS'can analyse your'
p181
I138
sS'reached your half'
p182
I1
sS'dryfruits (dates, raisins,'
p183
I2
sS'the GOQii application.</span><br'
p184
I3
sS'and not the'
p185
I64
sS'partying keep GPRS'
p186
I99
sS'date. Are we'
p187
I11
sS'OUTSIDE  7)Get'
p188
I16
sS'with you these'
p189
I53
sS'10 years. Your'
p190
I57
sS'a great enthusiasm'
p191
I6
sS'are facing any'
p192
I679
sS'app calling at'
p193
I1
sS'class="imageViewerInLarge" src="http://goqii-app.s3.amazonaws.com/user/images/s_1398239257.jpg" alt=""'
p194
I1
sS'Roboto, sans-serif;">*whole wheat'
p195
I2
sS'begin with, start'
p196
I7
sS'in the workouts'
p197
I73
sS'agents to your'
p198
I24
sS'these days and'
p199
I55
sS'GOQii Band\r\nand App,'
p200
I1
sS'your routine and'
p201
I263
sS'agents).. How necessary'
p202
I29
sS'will for sure'
p203
I7
sS'App, and are'
p204
I7
sS'coaching to imbibe'
p205
I5
sS'5 months. Your'
p206
I57
sS'5)Schedule some RELAXATION'
p207
I38
sS'up with it&nbsp;<img'
p208
I1
sS'New Roman&quot;;\r\nmso-bidi-font-family:Arial;color:#222222">Once we'
p209
I1
sS'emoji1f60a" style="box-sizing: border-box;'
p210
I612
sS'font-family: Roboto, sans-serif;">I'
p211
I29
sS'sans-serif; font-size: 13.3333339691162px;">*whole'
p212
I1
sS'it. Well, as'
p213
I7
sS'the BIGGEST! ('
p214
I163
sS'with paneer pieces\r\n<div><br'
p215
I1
sS'54); font-size: 12px;'
p216
I45
sS'0px;"></span><span style="box-sizing: border-box;'
p217
I124
sS'Member of the'
p218
I76
sS'body stores away'
p219
I46
sS'sans-serif; font-size: 17.7777786254883px;'
p220
I86
sS'border-box; margin: 0em'
p221
I299
sS'crushed nuts</span></div>\r\n<div><span style="color:'
p222
I2
sS'Ohhh...:( <br>Well today'
p223
I1
sS'never imagine!! So'
p224
I94
sS'avoid the wrong'
p225
I22
sS'the action-packed week!!'
p226
I105
sS'relative !important; opacity:'
p227
I466
sS'class="chromoji" style="box-sizing: border-box;'
p228
I455
sS'inherit !important; width:'
p229
I466
sS'and goals, and'
p230
I7
sS'RELAXATION time'
p231
I56
sS'grilled veggie sandwich</span></div>\r\n<div><span'
p232
I2
sS'you have yesterday?'
p233
I5
sS'do we resume?&nbsp;</span>'
p234
I5
sS'something I would'
p235
I20
sS'Health Tip :No'
p236
I20
sS'src="http://goqii-app.s3.amazonaws.com/emoticons/smiley-music.gif" alt="" />'
p237
I8
sS'you feel after'
p238
I318
sS'know the the'
p239
I154
sS'analyse your data..'
p240
I9
sS'Coach,<br /><br />I'
p241
I1
sS'weight or polluting'
p242
I171
sS'daily routine via'
p243
I297
sS'your body cells'
p244
I142
sS'src="http://goqii-app.s3.amazonaws.com/user/images/s_1398239257.jpg" alt="" />'
p245
I1
sS'journey? Don,t forget'
p246
I1
sS'initial; background-clip: initial;'
p247
I736
sS'is May 15,'
p248
I40
sS'14px; line-height: 16.7999992370605px;">,&nbsp;</span><span'
p249
I1
sS'u see my'
p250
I31
sS'markets and indulge'
p251
I32
sS'are you ?'
p252
I579
sS'always some amazing'
p253
I1
sS'rejuvenate the cells..'
p254
I29
sS'your body.&nbsp;</div><div style="box-sizing:'
p255
I7
sS'If it doesn\x83??t'
p256
I33
sS'Hey Mitali,<br><br>As per'
p257
I1
sS'!important; height: 1.2em'
p258
I157
sS'save yourself from'
p259
I171
sS'its great you'
p260
I3
sS'all your support'
p261
I79
sS'have the best'
p262
I43
sS'0px; background-image: url(http://coach.goqii.com/webApp/css-img/emoji.png?v=0.2.2)'
p263
I639
sS'connect. &nbsp;</span><br data-mce-bogus="1">'
p264
I1
sS'butter</span><br style="box-sizing: border-box;'
p265
I1
sS'month of April,here'
p266
I3
sS'u chatting through'
p267
I1
sS'the small letters'
p268
I180
sS'!important; border: 0px'
p269
I289
sS'the external invaders'
p270
I63
sS'little better today'
p271
I91
sS'too!'
p272
I621
sS'eat my colours!</div>\r\n<div'
p273
I9
sS'Hey Mitz.. u'
p274
I1
sS'Well, as we'
p275
I7
sS'13.3333339691162px;">*boiled corn chaat</span><br'
p276
I1
sS'accountable and will'
p277
I1
sS'sugar)</div><div style="box-sizing: border-box;'
p278
I4
sS'll try my'
p279
I60
sS'16.7999992370605px;">How have you'
p280
I33
sS'most important macronutrient-&nbsp;</span><strong'
p281
I6
sS'not getting sync'
p282
I35
sS'you?</span></div>\r\n<span style="color: #5d5d5d;'
p283
I1
sS"do. Thus, it's"
p284
I57
sS'Healthy weekend'
p285
I60
sS'role in muscle'
p286
I7
sS'more than usual'
p287
I57
sS"( example: children's"
p288
I151
sS'padding: 0px;" />Why'
p289
I7
sS'loved ones, make'
p290
I41
sS'0px; padding: 0px;">1.Don\x83??t'
p291
I1
sS'concept and also'
p292
I7
sS'while enjoying the'
p293
I95
sS'WORKOUTS in the'
p294
I56
sS'is to atleast'
p295
I1
sS'with crap!<br style="box-sizing:'
p296
I1
sS'16.7999992370605px;">PROTEIN.</strong><div style="box-sizing: border-box;'
p297
I7
sS'14px; line-height: 16.7999992370605px;">I'
p298
I1079
sS'13.3333339691162px;">*boiled black chanas'
p299
I1
sS'some mindful eating'
p300
I1
sS'the active mode.</span><br'
p301
I3
sS'rule in mind'
p302
I103
sS'Mitra!!&nbsp;<br><br>Eager to see'
p303
I1
sS'sans-serif; font-size: 12px;'
p304
I325
sS'date-box" style="box-sizing: border-box;'
p305
I517
sS'requirement as per'
p306
I131
sS'issues which is'
p307
I4
sS'we shall aim'
p308
I73
sS'weekend going?</span><br style="box-sizing:'
p309
I3
sS'class="row text">While\r\n you'
p310
I1
sS'good to you?</span></div>\r\n<span'
p311
I1
sS'this link for'
p312
I338
sS'make it easier'
p313
I26
sS'Roman&quot;;\r\nmso-bidi-font-family:Arial;color:#222222"><o:p></o:p></span></p>\r\n\r\n<p class="MsoNormal" style="margin-bottom:'
p314
I1
sS'the new day.'
p315
I1
sS'external invaders (pollutants'
p316
I61
sS'66, 66);"><div class="pull-right'
p317
I4
sS'step towards a'
p318
I45
sS'line-height: 16.7999992370605px;"><span class="emoji'
p319
I19
sS'float: none !important;'
p320
I467
sS'We could work'
p321
I49
sS'the progress bar'
p322
I7
sS'shall aim to'
p323
I67
sS'by the BIG'
p324
I177
sS'way for healthier'
p325
I61
sS'door games, dancing'
p326
I19
sS"week!! Let's get"
p327
I105
sS'share it with'
p328
I128
sS'still lapping everybody'
p329
I20
sS'a happier you.'
p330
I29
sS'sans-serif; font-size: 13.3333339691162px;">*at'
p331
I1
sS'when we visit'
p332
I32
sS'healthy lifestyle. I'
p333
I25
sS"what's your activity"
p334
I2
sS'an introductory call'
p335
I446
sS'going?</span><br style="box-sizing: border-box;'
p336
I8
sS'sandwich</span></div>\r\n<div><span style="color: #5d5d5d;'
p337
I2
sS'antioxidants from the'
p338
I1
sS'a 20 minutes'
p339
I228
sS'chaat</span></div>\r\n<div><span style="color: #5d5d5d;'
p340
I2
sS'your current body'
p341
I138
sS'like to congratulate\r\nyou'
p342
I1
sS'ORS, eat lots'
p343
I1
sS'/>I would really'
p344
I14
sS'0px; padding: 0px;'
p345
I6304
sS'they sound good'
p346
I2
sS'workout.&nbsp;<br style="box-sizing: border-box;'
p347
I10
sS'working towards our'
p348
I50
sS'and also help'
p349
I21
sS'walks listening to'
p350
I1
sS'/><br />I stared'
p351
I1
sS'with our goal?<br>'
p352
I1
sS"day. Let's get"
p353
I2
sS'/>Waiting to hear'
p354
I160
sS'you head out'
p355
I201
sS'during the day.'
p356
I62
sS'let me know,'
p357
I321
sS'healthier cells and'
p358
I61
sS'through phone or'
p359
I1
sS'font-family: Roboto, sans-serif;"></div>'
p360
I255
sS'that you are'
p361
I1961
sS'health goals.<br /><br'
p362
I19
sS'every SMART CHOICE'
p363
I103
sS'you up with'
p364
I170
sS'take a U-turn'
p365
I19
sS'and check out'
p366
I12
sS'start working towards'
p367
I106
sS'been?&nbsp;</span><font color="#5d5d5d" face="Roboto,'
p368
I5
sS'partially hydrogenated oil'
p369
I196
sS'New Roman&quot;;mso-bidi-font-family:Arial;\r\ncolor:#222222">I look'
p370
I1
sS'Would you like'
p371
I647
sS'you are chatting'
p372
I1
sS'not too difficult..'
p373
I61
sS'at the lunch?:)'
p374
I1
sS'today? I would'
p375
I16
sS'summer offer to'
p376
I5
sS'our goals too.&nbsp;</span><div'
p377
I2
sS'10)ORDER WELL while'
p378
I38
sS'you are exploring'
p379
I46
sS'is the time'
p380
I527
sS'i.e. August 1st,'
p381
I76
sS'300px; text-align: center;'
p382
I472
sS'your coach would'
p383
I121
sS'some amazing numbers'
p384
I10
sS'style="font-family:&quot;Verdana&quot;,&quot;sans-serif&quot;;mso-fareast-font-family:&quot;Times New Roman&quot;;\r\nmso-bidi-font-family:Arial;color:#1155CC">http://bit.ly/1EAMpVQ</span></a><span'
p385
I1
sS'something active-GET OUTSIDE'
p386
I38
sS'seedsCorn salad with'
p387
I1
sS'Lumia yet. Waiting'
p388
I1
sS'control-group" style="box-sizing: border-box;'
p389
I584
sS'GOQii Coach<i>.</i>&nbsp;First of'
p390
I1
sS'with whom I'
p391
I10
sS'GOQii Family! Moreover,'
p392
I48
sS'growth and repair'
p393
I26
sS'of fiber per'
p394
I186
sS"delay? Let's take"
p395
I9
sS'just eat one'
p396
I44
sS'so that I'
p397
I1856
sS'always the BIGGEST!'
p398
I163
sS'to you at'
p399
I133
sS'Grab some colorful'
p400
I61
sS'if you are'
p401
I1628
sS'your targets consistently!'
p402
I22
sS'I enjoy my'
p403
I3
sS'0px; width: 300px;'
p404
I472
sS'to be Start'
p405
I21
sS'/><br />Glad to'
p406
I362
sS'source of antioxidants'
p407
I8
sS'band data.. The'
p408
I22
sS'days\r\nincluding your current'
p409
I1
sS'imbibe more healthy'
p410
I5
sS'What say?'
p411
I948
sS'support and co-operation'
p412
I76
sS'macronutrient-&nbsp;</span><strong style="box-sizing: border-box;'
p413
I6
sS'and returned to'
p414
I118
sS'18px; line-height: 21.6000003814697px;">How\'s'
p415
I13
sS'line-height: 19.5px;">&nbsp;Hi Satish.'
p416
I1
sS'a better self?</div><div><br></div><div>Why'
p417
I9
sS'font-size: 14px; font-family:'
p418
I9
sS'for the day'
p419
I442
sS'sure you can'
p420
I167
sS'to avoid the'
p421
I93
sS'font-family: Roboto, sans-serif;">*boiled'
p422
I2
sS'\r\nmindful while enjoying'
p423
I21
sS'feel re-energized and'
p424
I29
sS'with me through'
p425
I5
sS'initial; background-position: initial;'
p426
I736
sS'with me. I'
p427
I60
sS'no Gym :('
p428
I1
sS'0px; padding: 0px;"></span><span'
p429
I202
sS'In fact, Everybody'
p430
I12
sS'your skin replaces'
p431
I63
sS'that would fill'
p432
I167
sS'you had a'
p433
I1442
sS'Sounds good to'
p434
I35
sS'My core is'
p435
I5
sS'Gupta, A GOQii'
p436
I50
sS'calculate the protein'
p437
I127
sS'you for the'
p438
I239
sS'down a few'
p439
I6
sS'<p>Hi Dipti</p>\r\n<p>Yes I'
p440
I1
sS'towards our GOAL..'
p441
I23
sS'buddy, every SMART'
p442
I99
sS'package. Look for'
p443
I144
sS'through exercise, stretching,'
p444
I118
sS'The better I'
p445
I24
sS'0px;">1.Don\x83??t be fooled'
p446
I1
sS'0px !important; max-height:'
p447
I461
sS'text-align: center; font-size:'
p448
I497
sS'not see results'
p449
I106
sS'like you do'
p450
I60
sS'0px; line-height: 16.7999992370605px;"><span'
p451
I48
sS'easy to learn,'
p452
I171
sS'we constantly working'
p453
I92
sS'Hey Satish its'
p454
I1
sS'you for an'
p455
I218
sS"it's gonna get"
p456
I42
sS'WELL while ordering'
p457
I38
sS'sans-serif;">*fruit yogurt with'
p458
I2
sS'Hey buddy... every'
p459
I45
sS'about it, I'
p460
I4
sS'with the app.&nbsp;&nbsp;Let'
p461
I2
sS'5 simple cues'
p462
I37
sS'activity plan for'
p463
I33
sS'positive.So if you'
p464
I1
sS'a party'
p465
I258
sS'have idli/dosa with'
p466
I3
sS'log as well,'
p467
I5
sS'and feel re-energized'
p468
I29
sS'now make your'
p469
I76
sS'date for us'
p470
I207
sS'13.3333339691162px;">*roasted makhanas</span><br style="box-sizing:'
p471
I1
sS'you start syncing'
p472
I38
sS'src="http://goqii-app.s3.amazonaws.com/conversation/1413798273_100X100.png" alt="" /><br'
p473
I1
sS"/>Let's get connected"
p474
I58
sS'about you for'
p475
I7
sS'With immense pleasure'
p476
I76
sS'sans-serif;">*whole wheat bread'
p477
I2
sS'Try a new'
p478
I37
sS'important it is'
p479
I35
sS'hear from you'
p480
I2258
sS'protect your body'
p481
I64
sS'GOQii family and'
p482
I63
sS'Facts label and'
p483
I171
sS'Hey!&nbsp;<span style="color: rgb(93,'
p484
I1
sS'fructose corn syrup'
p485
I229
sS'you. You can'
p486
I70
sS'13.3333339691162px;">*at times you'
p487
I1
sS'your body stores'
p488
I49
sS'on the front'
p489
I187
sS'have a great'
p490
I973
sS'D-A-N-C-E! In fact,'
p491
I12
sS'to which I'
p492
I25
sS'Satish. Super cool'
p493
I1
sS'updating\r\nyour daily routine'
p494
I3
sS'target="_blank"><span style="font-family:&quot;Verdana&quot;,&quot;sans-serif&quot;;mso-fareast-font-family:&quot;Times New'
p495
I1
sS'0px;">2. The FIRST'
p496
I2
sS'whole grain impostors.'
p497
I51
sS'away from skin'
p498
I20
sS'the GOQii Family!'
p499
I65
sS'17.7777786254883px; line-height: 24.0000019073486px;">Do'
p500
I1
sS'/><br /><span style="box-sizing:'
p501
I142
sS'moving Run, dance'
p502
I26
sS'be a positive'
p503
I3
sS'CONSUMER LAUNCH!! Thanks'
p504
I59
sS'pleasure and excitement,'
p505
I76
sS'earlier, the formal'
p506
I42
sS'activity Satish!<br /><br'
p507
I1
sS'font-family: Roboto, sans-serif;"><br></span></div>'
p508
I5
sS'target, to which'
p509
I1
sS'the nutrition label'
p510
I47
sS'you EXCEL in'
p511
I11
sS'visit the super'
p512
I32
sS'SMART CHOICE you'
p513
I105
sS'veggies</span></div>\r\n<div><span style="color: #5d5d5d;'
p514
I2
sS'16.7999992370605px;"><span style="color: rgb(93,'
p515
I747
sS'Will do. But'
p516
I1
sS'the market tomorrow'
p517
I76
sS'great Willpower too.'
p518
I44
sS'Roboto, sans-serif;">would like'
p519
I1
sS'process.. I would'
p520
I52
sS'14px; line-height: 16.7999992370605px;"><br'
p521
I1793
sS'I am out'
p522
I49
sS'should. Your body'
p523
I46
sS'data.<br>Please do let'
p524
I1
sS'your activity plan'
p525
I37
sS'irritation. Last but'
p526
I32
sS"I'm sure you"
p527
I78
sS'Hello, Good Morning!'
p528
I100
sS'you- When you'
p529
I46
sS'core is not'
p530
I28
sS'<img class="imageViewerInLarge" src="http://goqii-app.s3.amazonaws.com/user/images/s_1398239257.jpg"'
p531
I1
sS'band data.. Please'
p532
I13
sS'1.2; font-family: Roboto,'
p533
I137
sS'were yesterday. What'
p534
I19
sS'be great if'
p535
I585
sS'May 15, 2014.'
p536
I40
sS'training, which explains'
p537
I24
sS'king, nutrition is'
p538
I42
sS'3)Eat like you'
p539
I38
sS'we Gear up'
p540
I22
sS'activity...Keep yourself full'
p541
I22
sS"new day. Let's"
p542
I1
sS'out if your'
p543
I7
sS'the Nutrition Facts'
p544
I171
sS'1st, 2014, for'
p545
I76
sS'towards a better'
p546
I112
sS'liver, 5 months.'
p547
I57
sS'is fun, it'
p548
I12
sS'a healthier you!&nbsp;<img'
p549
I2
sS'that Willpower is'
p550
I44
sS'know what buddy,'
p551
I100
sS'vertical-align: middle; max-width:'
p552
I1731
sS'for portion control.'
p553
I3
sS'I hope you'
p554
I1809
sS'do for portion'
p555
I1
sS'paneer pieces\r\n<div><br />A'
p556
I1
sS'nutrition and even'
p557
I118
sS'Story - https://www.youtube.com/watch?v=3Fck3MfuqU8</div>'
p558
I12
sS'to break a'
p559
I48
sS'can for sure'
p560
I1
sS'see my steps'
p561
I6
sS'am Tejal\r\nGupte, your'
p562
I1
sS'to stay healthy.Your'
p563
I4
sS'active, I want'
p564
I60
sS'of water you'
p565
I103
sS'make is affecting'
p566
I106
sS'stay healthy.Your subscription'
p567
I4
sS'challenge you, it'
p568
I58
sS'today than we'
p569
I65
sS'and eat.(Grilled, Poached,'
p570
I66
sS'your intake is'
p571
I11
sS'our journey, I\r\nas'
p572
I1
sS'none !important; top:'
p573
I466
sS'learn, you just'
p574
I171
sS'for the Action?'
p575
I22
sS'can D-A-N-C-E! In'
p576
I12
sS'fiber per serving'
p577
I186
sS'moving in this'
p578
I68
sS'better I will'
p579
I23
sS'water you drink'
p580
I72
sS'today about it,'
p581
I1
sS'Mitali which 2'
p582
I1
sS'indulge in shopping!</span><div'
p583
I1
sS'well, so that'
p584
I9
sS'returned to you'
p585
I104
sS'Roboto, sans-serif;">weekend is'
p586
I1
sS'font-size: 14px; color:'
p587
I469
sS'style="margin-bottom: 0.0001pt; background-image:'
p588
I39
sS'Tip:\x83?\x9b\tDon\x83??t worry if'
p589
I19
sS'16.7999992370605px;">,&nbsp;</span><span style="box-sizing: border-box;'
p590
I1
sS'the intake of'
p591
I105
sS'Family! Moreover, you'
p592
I48
sS'you do ON'
p593
I38
sS'target="_blank"><span style="font-family:&quot;Verdana&quot;,&quot;sans-serif&quot;;\r\nmso-fareast-font-family:&quot;Times New'
p594
I1
sS'and water log'
p595
I346
sS'or soy nuts</span><br'
p596
I1
sS'a chocolate bar'
p597
I45
sS'be more active'
p598
I294
sS'13.3333339691162px;">*whole wheat bread'
p599
I1
sS'Hi Satish,<span style="color:'
p600
I2
sS'cues to decode'
p601
I37
sS'or soy nuts</span></div>\r\n<div><span'
p602
I2
sS'start the coaching'
p603
I219
sS'lots of optical'
p604
I1
sS'not only make'
p605
I31
sS'I can for'
p606
I12
sS'April,here comes the'
p607
I3
sS'your food when'
p608
I24
sS'all over. ????&nbsp;<br'
p609
I1
sS'Hi Mitali<br>Are you'
p610
I1
sS'plan our next'
p611
I128
sS'the wagon and'
p612
I62
sS'are starving. So'
p613
I46
sS'away more than'
p614
I46
sS'your band data..'
p615
I35
sS'the protein requirement'
p616
I130
sS'src="http://goqii-app.s3.amazonaws.com/user/user/s_1424510585.jpg" alt="" data-mce-src="http://goqii-app.s3.amazonaws.com/user/user/s_1424510585.jpg"'
p617
I2
sS'can do it.????&nbsp;'
p618
I1
sS'up for today?'
p619
I65
sS'Mitali<span style="color: rgb(93,'
p620
I2
sS'Right Foods..which will'
p621
I22
sS'by it. Well,'
p622
I7
sS'GOQii user with'
p623
I9
sS'ahead. As mentioned'
p624
I42
sS'padding: 0px; width:'
p625
I481
sS"Here's what"
p626
I15
sS'foods with a'
p627
I181
sS'our plate appealing'
p628
I24
sS'options for you-</span></div>\r\n<div><span'
p629
I2
sS'Roboto, sans-serif;"></span><span style="color:'
p630
I1
sS'routine via our'
p631
I265
sS'the GOQii band'
p632
I294
sS'7)Get enough'
p633
I38
sS'in the market'
p634
I105
sS'want to figure'
p635
I7
sS'Mitali,<br><br>As per laast'
p636
I1
sS'from skin irritation.'
p637
I32
sS'16.7999992370605px;">Hey &nbsp;Satish, I'
p638
I1
sS'Can we try'
p639
I24
sS', taking long'
p640
I19
sS'music to get'
p641
I2
sS'16.7999992370605px;"><span style="box-sizing: border-box;'
p642
I677
sS'on the label.<br'
p643
I64
sS"We'll be better"
p644
I104
sS'0px; vertical-align: middle;'
p645
I1556
sS'steps and sleep'
p646
I3
sS'thanks for connecting!Glad'
p647
I1
sS'walking sessions going??????\x9f&nbsp;'
p648
I1
sS'Roboto, sans-serif;">*boiled black'
p649
I2
sS'starving. So when'
p650
I46
sS'share with you'
p651
I705
sS'to say about'
p652
I24
sS'nutsMoong or besan'
p653
I1
sS'and high fructose'
p654
I186
sS'great you have'
p655
I3
sS'line-height: 16.7999992370605px;"></span><span style="box-sizing:'
p656
I14
sS'chickpeas or soy'
p657
I3
sS'what I have'
p658
I68
sS'crunchy salads everyday..'
p659
I61
sS'you were yesterday'
p660
I29
sS'0px;"><br style="box-sizing: border-box;'
p661
I727
sS'difficult to hit'
p662
I54
sS'weekend buddy! Keep'
p663
I22
sS'And how are'
p664
I13
sS'background-position: initial; background-repeat:'
p665
I736
sS'doesn\x83??t change you.'
p666
I33
sS'stared going to'
p667
I1
sS'font-family: Roboto, sans-serif;"></span><span'
p668
I1
sS'color: #5d5d5d; font-family:'
p669
I3134
sS'Bread and Peanut'
p670
I2
sS"going...!! :) We'll"
p671
I96
sS'Tip:Weekend time it'
p672
I19
sS'water log as'
p673
I39
sS'18px; line-height: 21.6000003814697px;"'
p674
I1725
sS'I will be'
p675
I1617
sS'rev up your'
p676
I32
sS'say about my'
p677
I12
sS'line-height: 16.7999992370605px;">I eat'
p678
I9
sS'great engaging with'
p679
I42
sS'Shimpli. .How are'
p680
I1
sS'visibility: inherit !important;'
p681
I466
sS'front of the'
p682
I202
sS'eat lots of'
p683
I3
sS'Hiiiii Mitali????&nbsp;<br>How was'
p684
I1
sS'that GOQii goes'
p685
I76
sS'dryfruit \r\nbased sweets!'
p686
I2
sS'you can save'
p687
I171
sS'line-height: 16.7999992370605px;">&nbsp;</div>\r\n<div style="box-sizing:'
p688
I184
sS'of all I'
p689
I14
sS'Everybody should Dance!!'
p690
I12
sS"and you'll know"
p691
I24
sS'in hybernate.&nbsp;<img src="http://goqii-app.s3.amazonaws.com/emoticons/smiley-laughing.gif"'
p692
I1
sS'the target steps'
p693
I6
sS'yesterday. What say?'
p694
I19
sS'your body metabolism'
p695
I194
sS'you skip meals,'
p696
I46
sS'our GOAL.. It'
p697
I22
sS'!important; padding: 0em'
p698
I466
sS'nn'
p699
I3
sS'the most important'
p700
I323
sS'thinks that you'
p701
I46
sS'you-</span></div>\r\n<div><span style="color: #5d5d5d;'
p702
I2
sS'6)Do something active-GET'
p703
I38
sS'r u there.................'
p704
I1
sS'#betheforce  --'
p705
I19
sS'achieving this goal.'
p706
I12
sS'padding: 0px; float:'
p707
I583
sS'for healthier cells'
p708
I61
sS'made up mostly'
p709
I180
sS'the WEEK AHEAD'
p710
I38
sS'further with our'
p711
I1
sS'taking long walks'
p712
I19
sS'style="font-family:&quot;Verdana&quot;,&quot;sans-serif&quot;;mso-fareast-font-family:&quot;Times New Roman&quot;;\r\nmso-bidi-font-family:Arial;color:#222222">Welcome'
p713
I1
sS'hi, thanks for'
p714
I4
sS'16.7999992370605px;">When do we'
p715
I5
sS'whom I have'
p716
I98
sS'85); font-family: arial,'
p717
I83
sS'body thinks that'
p718
I46
sS'of the GOQii'
p719
I408
sS'of the target'
p720
I41
sS'the Quality and'
p721
I24
sS'Your liver, 5'
p722
I57
sS'margin: 0em !important;'
p723
I466
sS'class="MsoNormal" style="margin: 12pt'
p724
I5
sS'like to hear'
p725
I29
sS'padding: 0px;"><br style="box-sizing:'
p726
I727
sS'plan to pick'
p727
I37
sS'can u see'
p728
I5
sS'today is to'
p729
I3
sS'Hi<br /><br />'
p730
I31
sS'breakfast its very'
p731
I1
sS':)'
p732
I16362
sS'a positive step'
p733
I8
sS'66); font-family: Roboto,'
p734
I281
sS'know Player... every'
p735
I48
sS'Hi Mitali!&nbsp;<br /><br'
p736
I1
sS'doesn\x83??t challenge you,'
p737
I33
sS'rgb(54, 54, 54);'
p738
I317
sS'are introducing special'
p739
I5
sS'Queen. Put them'
p740
I20
sS"Buddy! It's been"
p741
I42
sS'stay \r\nmindful while'
p742
I21
sS'besan ChillaBoiled Sprout'
p743
I1
sS'!important; position: relative'
p744
I466
sS'style="color: #5d5d5d; font-family:'
p745
I1562
sS'top: 0.25em !important;'
p746
I427
sS'about\r\nyour lifestyle we'
p747
I1
sS'chatting through player'
p748
I1
sS'with, start updating\r\nyour'
p749
I1
sS'your GOQii Coach<i>.</i>&nbsp;First'
p750
I1
sS'smooth. Let us'
p751
I1
sS'8)Prepare for'
p752
I38
sS'together to make'
p753
I78
sS'period for our'
p754
I5
sS'a first step'
p755
I15
sS'discussion\r\non your routine'
p756
I1
sS'sans-serif; font-size: 13.3333339691162px;">*fruit'
p757
I1
sS'salads.&nbsp;<img class="chromoji" style="box-sizing:'
p758
I1
sS'/><br /><br />I'
p759
I728
sS'right; width: 814.875px;"><div'
p760
I289
sS'getting an adequate'
p761
I7
sS'16.7999992370605px;">Hope we aren\'t'
p762
I1
sS'at bay.</div><div style="box-sizing:'
p763
I7
sS'us at a'
p764
I13
sS'resize: none !important;'
p765
I466
sS'those pieces!! :)'
p766
I44
sS'Hi Mitali<br>Good Morning'
p767
I2
sS'Poached, Roasted,Steamed) #betheforce'
p768
I76
sS'14px; line-height: 16.7999992370605px;">how\'s'
p769
I5
sS'14px; line-height: 16.7999992370605px;">Do'
p770
I159
sS'to daily upload'
p771
I1
sS'and based on'
p772
I49
sS'co-operation through the'
p773
I76
sS'u r in'
p774
I1
sS'polluting your body'
p775
I171
sS'Mitali,&nbsp;<span style="line-height: 1.2;'
p776
I1
sS'to decode the'
p777
I37
sS'band and the'
p778
I138
sS'Roman&quot;;mso-bidi-font-family:Arial;\r\ncolor:#1155CC">http://bit.ly/1smgaiI</span></a><span style="font-family:&quot;Verdana&quot;,&quot;sans-serif&quot;;\r\nmso-fareast-font-family:&quot;Times New'
p779
I1
sS'activity) and sleep.<o:p></o:p></span></p>\r\n\r\n<p'
p780
I2
sS'be a little'
p781
I340
sS'BIGGEST! ( if'
p782
I116
sS'font-size: 13.3333339691162px;">*whole wheat'
p783
I1
sS'replaces itself. Your'
p784
I63
sS'So keep going...!!'
p785
I99
sS'font-size: 13.3333339691162px;">*at times'
p786
I1
sS'up baby.</p>\r\n<p>On Saturday,'
p787
I1
sS'2014, for the'
p788
I76
sS',<span style="color: rgb(93,'
p789
I48
sS'exploring the GOQii'
p790
I38
sS'veggie sandwich</span></div>\r\n<div><span style="color:'
p791
I2
sS'and sleep.<o:p></o:p></span></p>\r\n\r\n<p class="MsoNormal"'
p792
I2
sS'after a week...'
p793
I101
sS'10)ORDER WELL'
p794
I38
sS'and have us'
p795
I1
sS'can now make'
p796
I76
sS'sans-serif" style="box-sizing: border-box;'
p797
I34
sS'keep GPRS rule'
p798
I101
sS'/><br />I would'
p799
I362
sS'with our workouts,'
p800
I3
sS'with a great'
p801
I22
sS'be a Special'
p802
I26
sS'connected over a'
p803
I120
sS"the day!! Let's"
p804
I42
sS'background-image: initial; background-attachment:'
p805
I736
sS'with you....Exercise is'
p806
I20
sS'padding: 0px;"></div><div style="box-sizing:'
p807
I901
sS'love to connect'
p808
I209
sS'demand of your'
p809
I7
sS'music ....<br>How about'
p810
I1
sS'to take a'
p811
I397
sS'to connect. &nbsp;</span><br'
p812
I1
sS'Roboto, sans-serif;"></div><div><font color="#5d5d5d"'
p813
I6
sS'way  3)Eat'
p814
I16
sS'is directly proportional'
p815
I75
sS'comes the day!!'
p816
I42
sS'more suspicious you'
p817
I186
sS'list. The more'
p818
I177
sS'connecting!Glad to have'
p819
I1
sS'GOQii life, please'
p820
I1
sS'line-height: 16.7999992370605px;">Do you??&nbsp;</div>\r\n<div'
p821
I7
sS'See my food'
p822
I1
sS'share your current'
p823
I3
sS'and have a'
p824
I551
sS'rgb(85, 85, 85);'
p825
I119
sS'As always some'
p826
I1
sS'tip for you-'
p827
I46
sS'Tip:You dont have'
p828
I21
sS'Morning! Here begins'
p829
I105
sS'me posted. :)'
p830
I22
sS"what's your current"
p831
I28
sS'board.<o:p></o:p></span></p>\r\n\r\n<p class="MsoNormal" style="margin:'
p832
I1
sS'Mitra,&nbsp;<span style="box-sizing: border-box;'
p833
I1
sS'0px none; vertical-align:'
p834
I451
sS'peanut butter</span><br style="box-sizing:'
p835
I1
sS'for some mindful'
p836
I2
sS'times and returned'
p837
I116
sS'your nutrition (food'
p838
I312
sS'to know a'
p839
I738
sS'for you-</span></div>\r\n<div><span style="color:'
p840
I2
sS'more exciting as'
p841
I42
sS'to hit your'
p842
I251
sS'in this direction!</span><br'
p843
I1
sS'be fooled by'
p844
I186
sS'how you feel'
p845
I37
sS'for today is'
p846
I26
sS'Roman&quot;;mso-bidi-font-family:Arial;\r\ncolor:#222222">&nbsp;<o:p></o:p></span></p>\r\n\r\n<p class="MsoNormal" style="margin-bottom:'
p847
I1
sS'How about targeting'
p848
I3
sS'start syncing it!'
p849
I13
sS'my colours!</div>\r\n<div style="box-sizing:'
p850
I9
sS'1424530472" style="box-sizing: border-box;'
p851
I1
sS'to see your'
p852
I2943
sS'help getting it'
p853
I1
sS'August 1st, 2014,'
p854
I76
sS'While partying keep'
p855
I87
sS'you been?&nbsp;</span><font color="#5d5d5d"'
p856
I5
sS'that be a'
p857
I12
sS'we visit the'
p858
I32
sS'Can I delete'
p859
I1
sS'What say? :)'
p860
I21
sS'out for the'
p861
I123
sS'Will get back'
p862
I57
sS'hands, and just'
p863
I44
sS'!important;"></span></span></font><div class="row date-box"'
p864
I6
sS'the packaging, the'
p865
I183
sS'Player... every 28'
p866
I48
sS'had a mango'
p867
I2
sS'it doesn\x83??t challenge'
p868
I33
sS'share your updates,still'
p869
I1
sS'baby.</p>\r\n<p>On Saturday, you'
p870
I1
sS'line-height: 21.6000003814697px;" /><span'
p871
I607
sS'with your loved'
p872
I93
sS'games, dancing ,'
p873
I19
sS"Hey Player! It's"
p874
I22
sS'Sprout chat /'
p875
I3
sS'installed in the'
p876
I1
sS'style="font-family:&quot;Verdana&quot;,&quot;sans-serif&quot;;mso-fareast-font-family:&quot;Times New Roman&quot;;\r\nmso-bidi-font-family:Arial;color:#222222">Once'
p877
I1
sS'<span style="color: rgb(85,'
p878
I41
sS'border: 0px; vertical-align:'
p879
I1536
sS'<p class="MsoNormal" style="margin:'
p880
I89
sS'to see you!'
p881
I25
sS"Player...What's up for"
p882
I12
sS'the extension period'
p883
I5
sS'up mostly of'
p884
I180
sS'glad to see'
p885
I318
sS'You know Player...'
p886
I48
sS'line-height: 21.6000003814697px;" /><br'
p887
I547
sS'class="row text" style="box-sizing:'
p888
I663
sS'corn chaat</span></div>\r\n<div><span style="color:'
p889
I2
sS'in month of'
p890
I4
sS'adequate supply of'
p891
I7
sS'colouring agents to'
p892
I24
sS'daily upload your'
p893
I1
sS'grams of fiber'
p894
I187
sS"explains that it's"
p895
I24
sS'bay.</div><div style="box-sizing: border-box;'
p896
I7
sS'butterA cup of'
p897
I1
sS'have to say'
p898
I29
sS'would love if'
p899
I74
sS'Play a full'
p900
I2
sS'Roboto, sans-serif;">Do they'
p901
I2
sS"children's cereal boxes)<br"
p902
I50
sS'<span style="box-sizing: border-box;'
p903
I2172
sS'makes these new'
p904
I63
sS'chutney or sambhar.</span></div>\r\n<div><span'
p905
I2
sS'5)Schedule some'
p906
I38
sS'line-height: 16.7999992370605px;">&nbsp;</span><span style="box-sizing:'
p907
I24
sS'was your weekend?'
p908
I1688
sS'healthier choice, for'
p909
I37
sS'this goal. I'
p910
I12
sS'as per your'
p911
I382
sS'enjoying the sweets'
p912
I41
sS'amazing numbers are'
p913
I2
sS'10 Tips'
p914
I38
sS'away!!&nbsp;</span><br style="box-sizing: border-box;'
p915
I1
sS'padding: 0px;" /><br'
p916
I691
sS'connect with you'
p917
I859
sS'supply of the'
p918
I7
sS'great if you'
p919
I528
sS'that a halt'
p920
I5
sS'I right? :)'
p921
I87
sS'next steps.<o:p></o:p></span></p>\r\n\r\n<p class="MsoNormal"'
p922
I1
sS'to it is'
p923
I62
sS'When you skip'
p924
I46
sS'to GOQii anthem'
p925
I167
sS'line-height: 1.2;"><div class="row'
p926
I34
sS'Plzzzz share your'
p927
I1
sS'2 days?<br data-mce-bogus="1">'
p928
I2
sS'board!! I would'
p929
I7
sS'font-size: 12px; line-height:'
p930
I348
sS"2 days.. What's"
p931
I1
sS'you are facing'
p932
I1063
sS'Matter how slow'
p933
I20
sS'you pour in..'
p934
I22
sS'Beware of whole'
p935
I186
sS'of good health.'
p936
I62
sS'the sound good'
p937
I1
sS'engaging with you'
p938
I42
sS'than usual resulting'
p939
I46
sS'ones! Have a'
p940
I22
sS'and encourage them'
p941
I76
sS'/><br />Keep up'
p942
I43
sS'16.7999992370605px;">Bela Gupta, A'
p943
I11
sS'14px; line-height: 16.7999992370605px;">If'
p944
I93
sS'line-height: 16.7999992370605px;">Can you'
p945
I53
sS'the Right Foods..which'
p946
I22
sS'Mitali<br>I am missing'
p947
I1
sS'pieces with your'
p948
I44
sS'active here.&nbsp;</span><font color="#5d5d5d"'
p949
I1
sS'have ORS, eat'
p950
I1
sS'blog post on'
p951
I25
sS'Mitali,<br><br>How are you'
p952
I1
sS'HUNGRY to a'
p953
I56
sS'arial, sans-serif; line-height:'
p954
I102
sS'based on this'
p955
I72
sS'background-repeat: initial;"><span style="font-family:&quot;Verdana&quot;,&quot;sans-serif&quot;;mso-fareast-font-family:&quot;Times'
p956
I1
sS'can plan our'
p957
I134
sS'your current workout'
p958
I18
sS'more data you'
p959
I31
sS'can plan out'
p960
I58
sS'slow you go,you'
p961
I20
sS'more about your'
p962
I603
sS'playing out door'
p963
I74
sS"we aren't moving"
p964
I68
sS'activity! ;)'
p965
I12
sS'Player! Rather than'
p966
I38
sS'targets consistently. #betheforce'
p967
I35
sS'protein requirement as'
p968
I131
sS'1.2em !important; display:'
p969
I153
sS'dashboard.<img class="imageViewerInLarge" src="http://goqii-app.s3.amazonaws.com/conversation/1413798273_100X100.png"'
p970
I1
sS'/>Did circuit today.&nbsp;'
p971
I1
sS'The FIRST ingredient'
p972
I177
sS':) I truly'
p973
I43
sS'be really glad'
p974
I62
sS'Presentation, we will'
p975
I309
sS'with a LONG'
p976
I163
sS'or besan ChillaBoiled'
p977
I1
sS'impostors. Choose breads,'
p978
I51
sS'already reached your'
p979
I1
sS'a healthy way'
p980
I101
sS'padding: 0px;">If you'
p981
I22
sS'has been a'
p982
I107
sS'to pick some'
p983
I38
sS'towards a healthy'
p984
I81
sS'be better day'
p985
I105
sS"Player! It's a"
p986
I22
sS'7)Get enough SLEEP'
p987
I38
sS'try&nbsp; having 2'
p988
I1
sS"day!! Let's get"
p989
I42
sS'be productive'
p990
I62
sS'keep the progress'
p991
I1
sS'to check out'
p992
I66
sS'aiming to be'
p993
I91
sS'shining my dashboard.<img'
p994
I1
sS'am sure you'
p995
I1931
sS'meeting the protein'
p996
I7
sS'you planned to'
p997
I78
sS'93, 93); line-height:'
p998
I372
sS'any band/app related'
p999
I6
sS'days and I'
p1000
I57
sS'least, keep the'
p1001
I38
sS'src="http://goqii-app.s3.amazonaws.com/emoticons/smiley-kiss.gif" alt="" />'
p1002
I26
sS'sans-serif;">would like to'
p1003
I1
sS'them together and'
p1004
I42
sS'it is to'
p1005
I72
sS'font-family: Roboto, sans-serif;"></div><div><font'
p1006
I6
sS'times you can'
p1007
I13
sS'Face" src="chrome-extension://cahedbegdkagmcjfolhdlechbkeaieki/images/apple/1f600.png" alt="????"'
p1008
I61
sS'as you should.'
p1009
I46
sS'can liberally \r\nrelish'
p1010
I22
sS'workouts/activities are lined'
p1011
I1
sS'coaching date is'
p1012
I42
sS'a LONG INGREDIENT'
p1013
I163
sS'max-height: 64px !important;'
p1014
I466
sS'good to you?</span>'
p1015
I4
sS'to a party'
p1016
I71
sS'yourself from putting'
p1017
I171
sS'with our coaching.???\x9f&nbsp;'
p1018
I1
sS'body weight and'
p1019
I124
sS'know the reason'
p1020
I99
sS', roaming about'
p1021
I19
sS'wheat bread with'
p1022
I9
sS'only make our'
p1023
I24
sS'Band\r\nand App, and'
p1024
I1
sS'you and your'
p1025
I283
sS"Today's Tip:\x83?\x9b\tDon\x83??t worry"
p1026
I19
sS'via our GOQii'
p1027
I276
sS'Yeah they do.'
p1028
I1
sS'GOQii application.</span><br style="box-sizing:'
p1029
I3
sS'color: rgb(93, 93,'
p1030
I3730
sS'gave me a'
p1031
I6
sS'to delay in'
p1032
I83
sS'Roboto, sans-serif;">*roasted makhanas</span></div>\r\n<div><span'
p1033
I2
sS'it going with'
p1034
I769
sS'family, relatives and'
p1035
I76
sS'BIG letters on'
p1036
I177
sS'did you have'
p1037
I587
sS'64px !important; position:'
p1038
I461
sS'8)Prepare for the'
p1039
I38
sS'seeing others achieve'
p1040
I66
sS'solved and have'
p1041
I1
sS'toned body keeping'
p1042
I7
sS'time when we'
p1043
I59
sS'should is do&nbsp;'
p1044
I1
sS'class="row control-group" style="box-sizing:'
p1045
I584
sS'is an ability'
p1046
I44
sS'or some crunchy'
p1047
I29
sS'at 6000 steps'
p1048
I2
sS'at GOQii. Be'
p1049
I7
sS'class="imageViewerInLarge" src="http://goqii-app.s3.amazonaws.com/conversation/1413798273_100X100.png" alt=""'
p1050
I1
sS'cup of curd'
p1051
I23
sS'i.e. your nutrition'
p1052
I246
sS'0px; padding: 0px;">It\'s'
p1053
I1
sS'the Lumia yet.'
p1054
I1
sS'to rejuvenate the'
p1055
I29
sS'am missing you'
p1056
I247
sS'them to lead'
p1057
I80
sS'!important; width: 1.2em'
p1058
I157
sS'sans-serif;">Do they sound'
p1059
I2
sS'padding: 0px; font-size:'
p1060
I858
sS'soy nuts</span><br style="box-sizing:'
p1061
I1
sS'style="font-family:&quot;Verdana&quot;,&quot;sans-serif&quot;;\r\nmso-fareast-font-family:&quot;Times New Roman&quot;;mso-bidi-font-family:Arial;\r\ncolor:#222222">&nbsp;<o:p></o:p></span></p>\r\n\r\n<p'
p1062
I1
sS'believe in WILLPOWER!'
p1063
I44
sS'minute we spend'
p1064
I26
sS'through player app'
p1065
I1
sS'line-height: 16.7999992370605px;">Hope we'
p1066
I1
sS'delay in results.</span><br'
p1067
I1
sS"self?</div><div><br></div><div>Why delay? Let's"
p1068
I9
sS'some colorful fruits'
p1069
I61
sS':) I am'
p1070
I93
sS'the \r\nlegs moving'
p1071
I1
sS'get it kick-started'
p1072
I167
sS"Hey Player...What's up"
p1073
I12
sS'Your body thinks'
p1074
I46
sS'colourful foods! Colours,'
p1075
I24
sS'YOUR WORKOUTS in'
p1076
I56
sS'from getting active'
p1077
I1
sS'<div style="box-sizing: border-box;'
p1078
I2456
sS'step counts since'
p1079
I15
sS'font-size: 13.3333339691162px;">*roasted chickpeas'
p1080
I1
sS'is getting an'
p1081
I8
sS'the workout.&nbsp;<br style="box-sizing:'
p1082
I10
sS'max-width: 64px !important;'
p1083
I466
sS'weekend is loading!&nbsp;???\x9f&nbsp;<br><br>Which'
p1084
I1
sS'Gear up for'
p1085
I30
sS'snacking options for'
p1086
I3
sS'class="row date-box" style="box-sizing:'
p1087
I498
sS'a drop in'
p1088
I13
sS'14px; line-height: 16.7999992370605px;">Let\'s'
p1089
I117
sS'have u as'
p1090
I2
sS'to your food'
p1091
I105
sS'atleast reach 8000'
p1092
I1
sS'is to rejuvenate'
p1093
I29
sS'been emphasizing on'
p1094
I24
sS'coach would like'
p1095
I9
sS'but add tremendous'
p1096
I24
sS'16.7999992370605px;">I eat my'
p1097
I9
sS'a fabulous weekend'
p1098
I40
sS'the list is'
p1099
I189
sS'fun, it has'
p1100
I12
sS"Let's get it"
p1101
I145
sS'style="margin: 12pt 0in'
p1102
I1
sS'/><br /><br /><br'
p1103
I841
sS'getting it solved'
p1104
I1
sS'2014. So here'
p1105
I40
sS'data.. Please start'
p1106
I13
sS'wheat grilled veggie'
p1107
I3
sS'14px; line-height: 16.7999992370605px;">Bela'
p1108
I11
sS'Roman&quot;;mso-bidi-font-family:Arial;\r\ncolor:#222222">To know more'
p1109
I1
sS'AHEAD  9)Dont'
p1110
I16
sS'gear to the'
p1111
I3
sS'Mitali,&nbsp;<span style="box-sizing: border-box;'
p1112
I1
sS'reason why I'
p1113
I37
sS'!important; top: 0.25em'
p1114
I427
sS'over a call'
p1115
I709
sS'font-family: Roboto, sans-serif;">weekend'
p1116
I1
sS'it doesn\x83??t change'
p1117
I33
sS'loading!&nbsp;???\x9f&nbsp;<br><br>Which workouts/activities are'
p1118
I1
sS'usual resulting in'
p1119
I46
sS'day by day'
p1120
I226
sS'to protect your'
p1121
I77
sS'foods, then hold'
p1122
I37
sS'GOQii goes live'
p1123
I76
sS'bad weight or'
p1124
I171
sS'you active here.&nbsp;</span><font'
p1125
I1
sS'<div><br></div><div>We are introducing'
p1126
I1
sS'get active, I'
p1127
I58
sS'have a LAZY'
p1128
I56
sS'dont have to'
p1129
I26
sS'attractive the packaging,'
p1130
I183
sS'style="line-height: 1.2; color:'
p1131
I3
sS'Stretch... Find some'
p1132
I22
sS'in more fat.'
p1133
I27
sS'you plan to'
p1134
I407
sS'forward to our'
p1135
I226
sS'sans-serif;">*whole wheat grilled'
p1136
I2
sS'with friends ,'
p1137
I19
sS'sans-serif;">*boiled corn chaat</span></div>\r\n<div><span'
p1138
I2
sS'invaders (pollutants and'
p1139
I61
sS'inherit !important; -webkit-perspective:'
p1140
I466
sS'my steps and'
p1141
I8
sS'veggies</span><br style="box-sizing: border-box;'
p1142
I3
sS'really like to'
p1143
I180
sS'Welcome to GOQii.'
p1144
I161
sS'post on interval'
p1145
I24
sS'I am Tejal\r\nGupte,'
p1146
I1
sS'today is the'
p1147
I93
sS'on the intake'
p1148
I24
sS'benefits too!'
p1149
I13
sS'force\x83??<o:p></o:p></span></p>\r\n\r\n<p class="MsoNormal"><span style="font-family:&quot;Verdana&quot;,&quot;sans-serif&quot;">&nbsp;</span></p>'
p1150
I1
sS'cereal boxes)<br style="box-sizing:'
p1151
I1
sS'sound good to'
p1152
I12
sS'line-height: 16.7999992370605px;">When do'
p1153
I5
sS'if you start'
p1154
I62
sS'a GOQii Presentation,'
p1155
I322
sS'I replied positive.So'
p1156
I1
sS'to get activated'
p1157
I1
sS'our walks alone'
p1158
I1
sS'Mitali!&nbsp;<br /><br />Glad'
p1159
I1
sS'initial; background-size: initial;'
p1160
I727
sS'WILLPOWER! It is'
p1161
I44
sS'crackers &amp; pasta'
p1162
I180
sS'is the new'
p1163
I36
sS'your data.<br>Please do'
p1164
I1
sS'band/app related issues'
p1165
I1
sS'you are starving.'
p1166
I46
sS'intake is meeting'
p1167
I7
sS'colorful fruits or'
p1168
I29
sS'!important; z-index: inherit'
p1169
I466
sS'feel after finishing'
p1170
I1
sS'14px; line-height: 16.7999992370605px;"><span'
p1171
I1329
sS'GOQii band and'
p1172
I101
sS'yourself full with'
p1173
I23
sS'a toned body'
p1174
I131
sS'missing you and'
p1175
I2
sS'initial;"><span style="font-family:&quot;Verdana&quot;,&quot;sans-serif&quot;;\r\nmso-fareast-font-family:&quot;Times New'
p1176
I1
sS'and see you'
p1177
I198
sS'Good to see'
p1178
I824
sS'Roboto, sans-serif;">*boiled corn'
p1179
I2
sS'have already reached'
p1180
I9
sS'take a first'
p1181
I10
sS'font-size: 13.3333339691162px;">*boiled black'
p1182
I1
sS'4)DONT GO HUNGRY'
p1183
I38
sS'with chopped veggies</span><br'
p1184
I3
sS'the force\x83??<o:p></o:p></span></p>\r\n\r\n<p class="MsoNormal"><span'
p1185
I1
sS'0px; padding: 0px;"'
p1186
I2732
sS'or sambhar.</span></div>\r\n<div><span style="color:'
p1187
I2
sS'14px; line-height: 16.7999992370605px;">&nbsp;</span><span'
p1188
I33
sS'Fiber is your'
p1189
I186
sS'I will try:)</p>\r\n<p>&nbsp;</p>'
p1190
I1
sS'chopped veggies</span><br style="box-sizing:'
p1191
I3
sS'font-size: 13.3333339691162px;">*boiled corn'
p1192
I1
sS'18px; line-height: 21.6000003814697px;">Relishing'
p1193
I3
sS'GOQii Presentation, we'
p1194
I310
sS'we need to'
p1195
I1382
sS'21.6000003814697px;" /><span style="box-sizing:'
p1196
I289
sS'0px; font-size: 14px;'
p1197
I498
sS'counts and additional'
p1198
I299
sS'or polluting your'
p1199
I171
sS'color: rgb(54, 54,'
p1200
I317
sS'you should. Your'
p1201
I46
sS'66, 66); font-family:'
p1202
I281
sS'curd with chopped'
p1203
I4
sS'morning before you'
p1204
I56
sS'later date. Are'
p1205
I11
sS'Hello Vishal. Ready'
p1206
I1
sS'listed down a'
p1207
I5
sS'to the active'
p1208
I15
sS'16.7999992370605px;">&nbsp;</div>\r\n<div style="box-sizing: border-box;'
p1209
I184
sS'on GOQii life,'
p1210
I4
sS'padding: 0px;"></div></div></div></div></div><div class="row'
p1211
I3
sS'class="imageViewerInLarge" src="http://goqii-app.s3.amazonaws.com/user/user/s_1426740460.jpg" alt=""'
p1212
I1
sS'padding: 0px;">4. Avoid'
p1213
I2
sS'going for our'
p1214
I1
sS'or dryfruit \r\nbased'
p1215
I2
sS'93); line-height: 1.2;"><div'
p1216
I108
sS'plan out our'
p1217
I51
sS'line-height: 16.7999992370605px;">I want'
p1218
I50
sS'rgb(255, 66, 66);'
p1219
I282
sS'are, then we'
p1220
I5
sS'skin irritation. Last'
p1221
I32
sS'for a healthier'
p1222
I73
sS'line-height: 16.7999992370605px;">Check it'
p1223
I33
sS'to keep away'
p1224
I42
sS'....<br>How about you?'
p1225
I1
sS'contain partially hydrogenated'
p1226
I186
sS'https://soundcloud.com/goqii/betheforce-goqii that would'
p1227
I84
sS'Roman&quot;;\r\nmso-bidi-font-family:Arial;color:#1155CC">http://bit.ly/1EAMpVQ</span></a><span style="font-family:&quot;Verdana&quot;,&quot;sans-serif&quot;;mso-fareast-font-family:&quot;Times New'
p1228
I1
sS'alt="????" /><br style="box-sizing:'
p1229
I30
sS'going with activity'
p1230
I4
sS'our call.&nbsp;</span><a href="http://bit.ly/1EAMpVQ"'
p1231
I1
sS'with colours, choose'
p1232
I40
sS'most suitable time'
p1233
I192
sS'Nutrition Facts label'
p1234
I171
sS'1 !important; outline-style:'
p1235
I466
sS'eat...the amount of'
p1236
I57
sS'just aim to'
p1237
I26
sS'none !important; float:'
p1238
I466
sS'from putting on'
p1239
I171
sS'it.. Thus, enabling'
p1240
I22
sS'morning Player! Rather'
p1241
I38
sS'try today ?&nbsp;'
p1242
I1
sS'and we can'
p1243
I366
sS'My blog post'
p1244
I25
sS'water),\r\nfitness (steps counts'
p1245
I2
sS'puran poli and'
p1246
I30
sS'font-family: Roboto, sans-serif;">*whole'
p1247
I2
sS"example: children's cereal"
p1248
I180
sS'next 2 days?<br'
p1249
I2
sS"Let's start working"
p1250
I35
sS'shift the gear'
p1251
I142
sS'life, please share'
p1252
I1
sS'0px; float: right;'
p1253
I577
sS'how are walking'
p1254
I1
sS'padding: 0px;">1.Don\x83??t be'
p1255
I1
sS'line-height: 1; color:'
p1256
I497
sS'15, 2014. So'
p1257
I40
sS'app.&nbsp;&nbsp;Let me know'
p1258
I2
sS'begins the action-packed'
p1259
I105
sS'to get back'
p1260
I552
sS'health!</div>\r\n<div style="box-sizing: border-box;'
p1261
I9
sS'call.&nbsp;</span><a href="http://bit.ly/1EAMpVQ" target="_blank"><span'
p1262
I2
sS'MakhanasRoasted pumpkin seeds'
p1263
I1
sS'help you excel'
p1264
I46
sS'Vishal. WOw!!! you'
p1265
I1
sS'of optical fiber'
p1266
I1
sS'with peanut butter</span></div>\r\n<div><span'
p1267
I2
sS'border-box; margin: 0px;'
p1268
I6171
sS'bar into four'
p1269
I44
sS'makhanas</span><br style="box-sizing: border-box;'
p1270
I1
sS'the least, keep'
p1271
I38
sS'extension period for'
p1272
I5
sS'/><br style="box-sizing: border-box;'
p1273
I1540
sS'24.0000019073486px;">Do they sound'
p1274
I1
sS'getting active on'
p1275
I3
sS'the Energy and'
p1276
I167
sS'Karma point Donation'
p1277
I3
sS'it&nbsp;<img src="http://goqii-app.s3.amazonaws.com/emoticons/smiley-smile.gif" alt=""'
p1278
I50
sS'54, 54); font-family:'
p1279
I299
sS'wrong ones! Have'
p1280
I22
sS'are still lapping'
p1281
I20
sS'burning calories as'
p1282
I46
sS'these new cells'
p1283
I63
sS'fabulous weekend buddy!'
p1284
I22
sS'down and you'
p1285
I47
sS'color: rgb(255, 66,'
p1286
I282
sS'why I have'
p1287
I28
sS'LAUNCH!! Thanks for'
p1288
I59
sS'sure you hit'
p1289
I81
sS'also help you'
p1290
I58
sS'laast update in'
p1291
I1
sS'with you for'
p1292
I260
sS'a great Willpower'
p1293
I44
sS'to be Great:)'
p1294
I21
sS'and the GOQii'
p1295
I49
sS'of the workout.&nbsp;<br'
p1296
I18
sS'in this!!! :)'
p1297
I11
sS'a mango in'
p1298
I1
sS"Heya, Today's Health"
p1299
I20
sS'INGREDIENT LIST!</div><div style="box-sizing:'
p1300
I4
sS'know a little'
p1301
I212
sS'appealing but add'
p1302
I24
sS';)'
p1303
I1380
sS'swirl all over.'
p1304
I2
sS'introducing special summer'
p1305
I5
sS'color="#5d5d5d" face="Roboto, sans-serif"'
p1306
I65
sS'food when nature'
p1307
I24
sS'and make it'
p1308
I217
sS'New Roman&quot;;mso-bidi-font-family:Arial;\r\ncolor:#222222">&nbsp;<o:p></o:p></span></p>\r\n\r\n<p class="MsoNormal"'
p1309
I1
sS'GOQii App, i.e.'
p1310
I256
sS'emphasizing on the'
p1311
I24
sS'per serving on'
p1312
I186
sS'poli and other'
p1313
I30
sS'in the Lumia'
p1314
I1
sS'journey at GOQii.'
p1315
I101
sS'yeah...thatz user login'
p1316
I1
sS'choose the organic'
p1317
I38
sS'date. :)'
p1318
I101
sS'and shift the'
p1319
I63
sS'help you set'
p1320
I183
sS'are always going'
p1321
I76
sS'line-height: 16.7999992370605px;">,</span><span style="box-sizing:'
p1322
I1
sS'style="box-sizing: border-box; margin:'
p1323
I6145
sS'in muscle growth'
p1324
I7
sS'not facing any'
p1325
I66
sS'(almonds, walnuts)&nbsp;Roasted MakhanasRoasted'
p1326
I1
sS'sweets! If you'
p1327
I14
sS'When can we'
p1328
I233
sS'would like to'
p1329
I2956
sS"( if it's"
p1330
I8
sS'at least 2'
p1331
I333
sS'happy to get'
p1332
I18
sS'activity that you'
p1333
I86
sS'would be really'
p1334
I87
sS'the super markets'
p1335
I32
sS'share how you'
p1336
I1
sS'<p>Dips</p>\r\n<p>We missed on'
p1337
I1
sS'on bad weight'
p1338
I171
sS'few evening snacking'
p1339
I3
sS'us move further'
p1340
I1
sS"share what's your"
p1341
I23
sS'back on the'
p1342
I130
sS'a healthy lifestyle.'
p1343
I117
sS'sans-serif;"></div><div><font color="#5d5d5d" face="Roboto,'
p1344
I6
sS'padding: 0px;">5. Fiber'
p1345
I2
sS'the fruit. How'
p1346
I1
sS'change you. We'
p1347
I50
sS'auto;"></div></div></div></div><div class="row date-box"'
p1348
I1
sS'start syncing the'
p1349
I73
sS'if your intake'
p1350
I7
sS'lifestyle. I am'
p1351
I8
sS'going to be'
p1352
I795
sS'sleep.<o:p></o:p></span></p>\r\n\r\n<p class="MsoNormal" style="margin:'
p1353
I2
sS'13.3333339691162px;" /><br style="box-sizing:'
p1354
I1
sS'New Roman&quot;;\r\nmso-bidi-font-family:Arial;color:#222222">Hope you'
p1355
I1
sS're-energized and refreshed!'
p1356
I29
sS'13.3333339691162px;" /><span style="box-sizing:'
p1357
I1
sS'class="MsoNormal" style="margin-bottom: 0.0001pt;'
p1358
I89
sS'I feel accountable'
p1359
I1
sS'which I replied'
p1360
I1
sS'if you could'
p1361
I258
sS'us with natural'
p1362
I19
sS'0px;">It\'s easy to'
p1363
I1
sS'0.25em !important; z-index:'
p1364
I427
sS'their goals. Since'
p1365
I48
sS'kick-started by listening'
p1366
I167
sS'GO HUNGRY to'
p1367
I56
sS'Tip:How important it'
p1368
I15
sS'for a GOQii'
p1369
I329
sS'chutney or sambhar.<br'
p1370
I1
sS'but not the'
p1371
I299
sS'affecting you in'
p1372
I108
sS'me know, I'
p1373
I100
sS'me. I will'
p1374
I91
sS'with chopped fruits'
p1375
I28
sS'src="http://goqii-app.s3.amazonaws.com/emoticons/smiley-laughing.gif" alt="" />'
p1376
I2462
sS'GOQii Life! I'
p1377
I118
sS'Health Tip:You may'
p1378
I16
sS'I want to'
p1379
I711
sS'6000 steps today?'
p1380
I1
sS'display: inline !important;'
p1381
I470
sS'!important; display: inline'
p1382
I569
sS'you should be'
p1383
I232
sS"in ways you'd"
p1384
I109
sS'I have to'
p1385
I259
sS'Snacking optionsWhole wheat'
p1386
I1
sS'help you EXCEL'
p1387
I11
sS'we try in'
p1388
I2
sS'fooled by the'
p1389
I186
sS'with activity Satish!<br'
p1390
I1
sS'line-height: 16.7999992370605px;">We need'
p1391
I15
sS'ingredient list. The'
p1392
I177
sS'speak to sachin.'
p1393
I1
sS'since last 2'
p1394
I15
sS'GOQii, watch this'
p1395
I327
sS'0px; padding: 0px;">If'
p1396
I24
sS'high fructose corn'
p1397
I213
sS'the physical activity'
p1398
I117
sS'font-family: Roboto, sans-serif;">*roasted'
p1399
I2
sS'and refreshed! The'
p1400
I29
sS'instant cues to'
p1401
I37
sS'friends, a'
p1402
I78
sS"buddy.. Let's start"
p1403
I16
sS'src="http://goqii-app.s3.amazonaws.com/emoticons/smiley-laughing.gif" alt="" /><br'
p1404
I720
sS'through the Beta'
p1405
I26
sS'like to share'
p1406
I949
sS'1.2; color: rgb(93,'
p1407
I3
sS'16.7999992370605px;">Check it out-&nbsp;https://goqii.com/blog/interval-training-to-put-your-fat-on-flame/</span>'
p1408
I24
sS'!important; float: none'
p1409
I467
sS'first step now.What'
p1410
I10
sS'is a king,'
p1411
I42
sS'Roboto, sans-serif;">*roasted chickpeas'
p1412
I2
sS'a weekend.. Rise'
p1413
I22
sS'a target, to'
p1414
I1
sS'Great To Start,You'
p1415
I21
sS'middle; max-width: 100%;'
p1416
I1541
sS'2)SPLURGE in a'
p1417
I38
sS'how are you?'
p1418
I232
sS'any obstacles that'
p1419
I1
sS'putting on bad'
p1420
I171
sS'You may not'
p1421
I115
sS'new stuff and'
p1422
I9
sS'and just eat'
p1423
I44
sS'our continued coaching'
p1424
I5
sS'time it izz.'
p1425
I79
sS'time with your'
p1426
I173
sS'bars, crackers &amp;'
p1427
I180
sS'shopping,etc. While partying'
p1428
I19
sS'it kick-started by'
p1429
I167
sS"Player,Today's Health Tip:Rather"
p1430
I25
sS'and water),\r\nfitness (steps'
p1431
I2
sS'choice, for a'
p1432
I37
sS"Hey Player,Today's Health"
p1433
I16
sS'16.7999992370605px;">&nbsp;</span><span style="box-sizing: border-box;'
p1434
I24
sS'Good morning Mitali<br><br><br>'
p1435
I1
sS'The more attractive'
p1436
I186
sS'0px;">If you plan'
p1437
I2
sS'on board.<o:p></o:p></span></p>\r\n\r\n<p class="MsoNormal"'
p1438
I1
sS'GOQii concept and'
p1439
I201
sS'then hold on!'
p1440
I37
sS'I am extremely'
p1441
I107
sS'encourage them to'
p1442
I76
sS'next few days\r\nincluding'
p1443
I1
sS'padding: 0px;">3. Avoid'
p1444
I2
sS'should Dance!! Not'
p1445
I12
sS'there! :) I'
p1446
I25
sS'my All time'
p1447
I12
sS'ask me today'
p1448
I1
sS'To begin with,'
p1449
I19
sS'while ordering out'
p1450
I38
sS'feeling physically better'
p1451
I117
sS'about places,going shopping,etc.'
p1452
I19
sS'14px; line-height: 16.7999992370605px;">&nbsp;</div>\r\n<div'
p1453
I176
sS'familiarized by it.'
p1454
I7
sS'working towards a'
p1455
I103
sS'for the next'
p1456
I689
sS'better today than'
p1457
I91
sS'like you to'
p1458
I534
sS'and colourful veggie'
p1459
I24
sS'it resolved and'
p1460
I2
sS'exercise should is'
p1461
I1
sS'minute you spend'
p1462
I92
sS'The more data'
p1463
I26
sS'you eat again,'
p1464
I46
sS'how slow you'
p1465
I20
sS'with peanut butter</span><br'
p1466
I1
sS'be Start to'
p1467
I21
sS'the sweets offered'
p1468
I46
sS'<img src="http://goqii-app.s3.amazonaws.com/emoticons/smiley-music.gif" alt=""'
p1469
I7
sS'very sleep in'
p1470
I1
sS'mindful eating at'
p1471
I1
sS"and Power! Let's"
p1472
I167
sS'plan&nbsp; to play'
p1473
I33
sS'WOW!!&nbsp;???\x9f Missed meeting'
p1474
I1
sS'boxes)<br style="box-sizing: border-box;'
p1475
I1
sS'small letters on'
p1476
I180
sS'WEEKDAYS  4)DONT'
p1477
I16
sS'sleep will be'
p1478
I118
sS'too difficult.. Grab'
p1479
I29
sS'I am sure'
p1480
I3170
sS'you have got'
p1481
I142
sS'to imbibe more'
p1482
I5
sS'Mitali,&nbsp;<span style="color: rgb(93,'
p1483
I1
sS'FIRST ingredient on'
p1484
I177
sS'Get Going!!! ;'
p1485
I60
sS'with crushed nuts</span></div>\r\n<div><span'
p1486
I2
sS'is Queen. Put'
p1487
I20
sS'I delete my'
p1488
I2
sS'is very rightly'
p1489
I44
sS'more attractive the'
p1490
I186
sS'in the morning'
p1491
I2148
sS'style="font-family:&quot;Verdana&quot;,&quot;sans-serif&quot;;\r\nmso-fareast-font-family:&quot;Times New Roman&quot;;mso-bidi-font-family:Arial;\r\ncolor:#222222">&nbsp;</span></p>\r\n\r\n<p'
p1492
I1
sS'it going?</span><br style="box-sizing:'
p1493
I5
sS'lifestyle and routine.'
p1494
I7
sS'you....Exercise is a'
p1495
I20
sS'WEEK AHEAD'
p1496
I56
sS'float: right;"><br style="box-sizing:'
p1497
I3
sS'part of the'
p1498
I234
sS'in WILLPOWER! It'
p1499
I44
sS'line-height: 16.7999992370605px;">how\'s it'
p1500
I4
sS'today preferably&nbsp; during'
p1501
I1
sS'be perfect, just'
p1502
I25
sS'extremely glad\r\nto have'
p1503
I1
sS'me through user'
p1504
I1
sS'and even sleep'
p1505
I117
sS'a Healthy weekend'
p1506
I56
sS'pick some processed'
p1507
I37
sS'and keep the'
p1508
I92
sS'happier you. :)'
p1509
I29
sS'nutrition label that'
p1510
I37
sS'detailed discussion\r\non your'
p1511
I1
sS'font-size: 13.3333339691162px;">*roasted makhanas</span><br'
p1512
I1
sS'HAVE A'
p1513
I61
sS'day  2)SPLURGE'
p1514
I16
sS'Your bones, 10'
p1515
I57
sS'have to be'
p1516
I149
sS"It's a weekend.."
p1517
I24
sS"Hey player.. Here's"
p1518
I20
sS'imagine!! So keep'
p1519
I94
sS"breakfast...???\x9f&nbsp;<br>So what's your"
p1520
I1
sS'ones\r\n to keep'
p1521
I1
sS'your favorite food/relaxing/travelling/meeting'
p1522
I3
sS'discuss\r\nthis on our'
p1523
I1
sS'sans-serif;">*boiled black chanas'
p1524
I2
sS'you soon.&nbsp;</span><div class="row'
p1525
I1
sS'to have u'
p1526
I6
sS'application.</span><br style="box-sizing: border-box;'
p1527
I3
sS'Thank you :)<br'
p1528
I4
sS'sans-serif;"></span><span style="color: rgb(93,'
p1529
I1
sS'colours, choose the'
p1530
I40
sS'Today no Gym'
p1531
I1
sS'12px; line-height: 1;'
p1532
I314
sS'to congratulate\r\nyou for'
p1533
I1
sS'line-height: 16.7999992370605px;">Bela Gupta,'
p1534
I11
sS'cues and you'
p1535
I37
sS'LIST!</div><div style="box-sizing: border-box;'
p1536
I4
sS"you'd never imagine!!"
p1537
I104
sS'lead a healthier'
p1538
I129
sS'20 minutes call'
p1539
I184
sS'nuts (almonds, walnuts)&nbsp;Roasted'
p1540
I1
sS'even have idli/dosa'
p1541
I3
sS'excel in this.'
p1542
I43
sS'an ability to'
p1543
I44
sS'the front of'
p1544
I222
sS'you from updating'
p1545
I21
sS'should be ('
p1546
I180
sS'we can plan'
p1547
I227
sS'14px; font-family: Roboto,'
p1548
I7
sS'Vishal. Ready for'
p1549
I1
sS'new cells from'
p1550
I63
sS'and are getting'
p1551
I7
sS'food you eat...the'
p1552
I57
sS'you share your'
p1553
I83
sS'back by Wednesday'
p1554
I2
sS'the most suitable'
p1555
I193
sS'stretching, nutrition and'
p1556
I117
sS'months. Your bones,'
p1557
I57
sS'Good morning Player!'
p1558
I38
sS'comes from seeing'
p1559
I66
sS'Hey Mitali<span style="color:'
p1560
I1
sS'chatting through phone'
p1561
I1
sS'pasta with at'
p1562
I186
sS'0px; padding: 0px;">3.'
p1563
I16
sS'16.7999992370605px;">Proteins play a'
p1564
I7
sS'Heya Buddy,Weekend Health'
p1565
I19
sS'<br>The weekend is'
p1566
I21
sS'returned to us'
p1567
I13
sS'of whole grain'
p1568
I239
sS'and co-operation through'
p1569
I76
sS'full with the'
p1570
I23
sS'lets try&nbsp; having'
p1571
I1
sS'I have been'
p1572
I639
sS'lined up over'
p1573
I1
sS'to make sure'
p1574
I319
sS'healthier you!&nbsp;<img class="imageViewerInLarge"'
p1575
I2
sS"Power! Let's Get"
p1576
I167
sS'and sleep data'
p1577
I6
sS'color="#5d5d5d" face="Roboto, sans-serif"><span'
p1578
I35
sS'font-family: Roboto, sans-serif;">would'
p1579
I1
sS'a little better'
p1580
I131
sS'14px; line-height: 16.7999992370605px;">How'
p1581
I521
sS'New Roman&quot;;mso-bidi-font-family:Arial;\r\ncolor:#222222">To know'
p1582
I1
sS'How necessary it'
p1583
I29
sS'organic ones\r\n to'
p1584
I1
sS'/><br /></span>Do the'
p1585
I1
sS'0px; float: right;"><br'
p1586
I8
sS'New Roman&quot;;\r\nmso-bidi-font-family:Arial;color:#1155CC">http://bit.ly/1EAMpVQ</span></a><span style="font-family:&quot;Verdana&quot;,&quot;sans-serif&quot;;mso-fareast-font-family:&quot;Times'
p1587
I1
sS'sleep in afternoon..what'
p1588
I1
sS'for you to'
p1589
I855
sS'enthusiasm from tomorrow!'
p1590
I6
sS'line-height: 16.7999992370605px;">&nbsp;I have'
p1591
I41
sS"stuff and you'll"
p1592
I9
sS'afternoon..what to do?'
p1593
I1
sS'have a detailed'
p1594
I25
sS'Anybody can D-A-N-C-E!'
p1595
I12
sS'Hey Mitali,&nbsp;<span style="line-height:'
p1596
I1
sS"Here's something I"
p1597
I20
sS'to lead a'
p1598
I199
sS'0px;">Make a healthier'
p1599
I1
sS'Me kuthe distey.partial'
p1600
I1
sS'sans-serif;">*roasted chickpeas or'
p1601
I2
sS'gifted us with'
p1602
I25
sS'to you?</span></div>\r\n<span style="color:'
p1603
I1
sS'at a later'
p1604
I119
sS'!important; -webkit-perspective: none'
p1605
I466
sS'live in the'
p1606
I100
sS'padding: 0px;">2. The'
p1607
I2
sS'fat levels at'
p1608
I7
sS'days, your skin'
p1609
I63
sS'four pieces with'
p1610
I44
sS'14px; line-height: 1.2;">how'
p1611
I5
sS'Last but not'
p1612
I189
sS'14px; line-height: 16.7999992370605px;">&nbsp;I'
p1613
I95
sS'of the week'
p1614
I1181
sS'step now.What say?</div>'
p1615
I5
sS'week... but you'
p1616
I101
sS'If you plan&nbsp;'
p1617
I14
sS'GOQii anthem https://soundcloud.com/goqii/betheforce-goqii'
p1618
I115
sS"Mitali...What's up for"
p1619
I1
sS'solution to it'
p1620
I77
sS'GOQii. Glad to'
p1621
I9
sS'half of the'
p1622
I165
sS'line-height: 16.7999992370605px;">Let\'s calculate'
p1623
I7
sS'relax.. Try a'
p1624
I22
sS'is very smooth.'
p1625
I1
sS'from updating your'
p1626
I16
sS'font-size: 13.3333339691162px;">I have'
p1627
I1
sS'remember these 5'
p1628
I179
sS'stretches to avoid'
p1629
I4
sS'fruits and nuts'
p1630
I70
sS'eating at the'
p1631
I1
sS'gradual process.. I'
p1632
I52
sS'subscription gets over'
p1633
I9
sS'towards achieving this'
p1634
I13
sS'Since your goal'
p1635
I59
sS'814.875px;"><div class="row text"'
p1636
I286
sS'are not facing'
p1637
I56
sS'time to relax..'
p1638
I22
sS'and excitement, I'
p1639
I76
sS'your family, relatives'
p1640
I76
sS'sans-serif; font-size: 18px;'
p1641
I2257
sS'us have a'
p1642
I135
sS'14px; line-height: 16.7999992370605px;">PROTEIN.</strong><div'
p1643
I7
sS'you are finding'
p1644
I89
sS'line-height: 16.7999992370605px;">You must'
p1645
I11
sS'with natural colourful'
p1646
I19
sS'THE WEEKDAYS'
p1647
I38
sS'fact, Everybody should'
p1648
I12
sS'a GOQii user'
p1649
I56
sS'Hi Mitali,<span style="color:'
p1650
I2
sS'for today? &nbsp;'
p1651
I6
sS'line-height: 21.6000003814697px;">Relishing your'
p1652
I3
sS'66);"><div class="pull-right timestampchecker'
p1653
I3
sS'its very good'
p1654
I5
sS'Coach what should'
p1655
I1
sS'food and water'
p1656
I953
sS'better day by'
p1657
I132
sS"player.. Here's something"
p1658
I20
sS'get it started..Our'
p1659
I1
sS'<div>Hi&nbsp;<br><br>Every minute we'
p1660
I1
sS'line-height: 16.7999992370605px;">,&nbsp;</span><span style="box-sizing:'
p1661
I1
sS'finding it difficult'
p1662
I109
sS'Hey hi, thanks'
p1663
I1
sS'foods that contain'
p1664
I189
sS"aren't moving in"
p1665
I68
sS"it's a gradual"
p1666
I58
sS'Dance!! Not just'
p1667
I12
sS'food.<br style="box-sizing: border-box;'
p1668
I1
sS'reach 8000 steps..What'
p1669
I1
sS'10 times and'
p1670
I119
sS'timestampchecker 1424530472" style="box-sizing:'
p1671
I1
sS'inspiration comes from'
p1672
I66
sS'continued coaching to'
p1673
I5
sS'Dancing is fun,'
p1674
I12
sS'your data.. :)'
p1675
I2
sS'it difficult to'
p1676
I139
sS'achieve their goals.'
p1677
I69
sS'background-size: initial; background-origin:'
p1678
I736
sS'routine and goals,'
p1679
I7
sS'minutes call and'
p1680
I7
sS'is not too'
p1681
I71
sS'to help you'
p1682
I1014
sS'waiting to hear'
p1683
I587
sS'for the WEEK'
p1684
I39
sS'jaggery-wheat based puran'
p1685
I41
sS'src="http://goqii-app.s3.amazonaws.com/user/user/s_1426740460.jpg" alt="" data-mce-src="http://goqii-app.s3.amazonaws.com/user/user/s_1426740460.jpg">'
p1686
I1
sS'New Roman&quot;;mso-bidi-font-family:Arial;\r\ncolor:#222222">Refer to'
p1687
I1
sS"Let's Get Going!!!"
p1688
I167
sS'/><span style="box-sizing: border-box;'
p1689
I620
sS'bread with peanut'
p1690
I32
sS'quick solution to'
p1691
I30
sS"if it's sugar,"
p1692
I37
sS'about the Quality'
p1693
I24
sS'the band data..'
p1694
I22
sS'I would love'
p1695
I1157
sS'pumpkin seeds and'
p1696
I3
sS'regular with our'
p1697
I15
sS'get well soon'
p1698
I29
sS'for late reply'
p1699
I43
sS'to figure out'
p1700
I58
sS'on the label.</div><div'
p1701
I21
sS'wagon and shift'
p1702
I47
sS'which 2 fruits'
p1703
I1
sS'0px 8px; padding:'
p1704
I351
sS'a gradual process..'
p1705
I52
sS'16.7999992370605px;">I want to'
p1706
I18
sS'ability to break'
p1707
I44
sS'you can even'
p1708
I18
sS'repair which helps'
p1709
I7
sS'a healthier choice,'
p1710
I37
sS'font-family: Roboto, sans-serif;">Do'
p1711
I2
sS'and your inputs.???\x9b&nbsp;'
p1712
I1
sS'16.7999992370605px;">Let\'s calculate the'
p1713
I7
sS'is your friend!'
p1714
I181
sS'background-origin: initial; background-clip:'
p1715
I736
sS'grilled veggie sandwich</span><br'
p1716
I1
sS'to our exciting'
p1717
I120
sS'our exciting journey'
p1718
I134
sS"Thus, it's a"
p1719
I57
sS'offered to you.'
p1720
I46
sS'could work together'
p1721
I51
sS':No Matter how'
p1722
I20
sS'Find some time'
p1723
I22
sS'you make a'
p1724
I69
sS'as we start'
p1725
I43
sS'your health goals.<br'
p1726
I46
sS'fruits did you'
p1727
I16
sS'<img class="imageViewerInLarge" src="http://goqii-app.s3.amazonaws.com/user/user/s_1426740460.jpg"'
p1728
I1
sS'stuff to share'
p1729
I29
sS'could watch it'
p1730
I57
sS'keeping the fat'
p1731
I7
sS'Choose breads, cereals,'
p1732
I180
sS'some RELAXATION time'
p1733
I56
sS'Hey Shimpli. .How'
p1734
I1
sS'you??&nbsp;</div>\r\n<div style="box-sizing: border-box;'
p1735
I7
sS'good to you?</span></div>'
p1736
I2
sS'weekend.. Rise and'
p1737
I22
sS'0in 0.0001pt; background-image:'
p1738
I1
sS'hold on! Learn'
p1739
I37
sS'you through the'
p1740
I367
sS'going with our'
p1741
I77
sS'0px; border: 0px;'
p1742
I1549
sS'or with someone'
p1743
I1
sS'through user login?'
p1744
I1
sS'more active by'
p1745
I122
sS'itself. Your liver,'
p1746
I57
sS'do. But how'
p1747
I1
sS'introductory call to'
p1748
I282
sS'a correct choice'
p1749
I37
sS'HAVE A LOVELY'
p1750
I56
sS'to you. You'
p1751
I41
sS'8000 steps..What say?&nbsp;'
p1752
I1
sS'my vishalgondal@hotmail.com account'
p1753
I1
sS'chatWhole wheat Bread'
p1754
I1
sS"Here's a health"
p1755
I26
sS'should I do'
p1756
I27
sS'chanas with chopped'
p1757
I3
sS'about your health'
p1758
I318
sS"cool breakfast...???\x9f&nbsp;<br>So what's"
p1759
I1
sS'direction!</span><br style="box-sizing: border-box;'
p1760
I1
sS'after finishing your'
p1761
I1
sS'know more about'
p1762
I796
sS'feel accountable and'
p1763
I1
sS'some processed and'
p1764
I37
sS'the organic ones\r\n'
p1765
I1
sS'I\r\nas your coach'
p1766
I1
sS'kuthe distey.partial or'
p1767
I1
sS'out door games,'
p1768
I19
sS'0px; padding: 0px;">2.'
p1769
I16
sS'some stretches to'
p1770
I3
sS'out  HAVE'
p1771
I16
sS'Health Tip:How important'
p1772
I15
sS'can even have'
p1773
I7
sS'positive or negative.</p>\r\n<p>Ok?:)</p>'
p1774
I1
sS'0px;">5. Fiber is'
p1775
I2
sS'you like to'
p1776
I928
sS'sync wt app'
p1777
I1
sS'max-width: 100%; height:'
p1778
I1524
sS'getting familiarized by'
p1779
I7
sS'me today about'
p1780
I1
sS'metabolism slows down'
p1781
I47
sS'with tomato chutney'
p1782
I7
sS'sandwich</span><br style="box-sizing: border-box;'
p1783
I1
sS'the CONSUMER LAUNCH!!'
p1784
I76
sS'sambhar.<br /><br /></span>Do'
p1785
I1
sS'us to connect.'
p1786
I231
sS'pour in.. The'
p1787
I22
sS'(pollutants and other'
p1788
I61
sS'watch it and'
p1789
I53
sS'app calling is'
p1790
I1
sS'perfect, just aim'
p1791
I25
sS'we start our'
p1792
I39
sS'Learn some instant'
p1793
I37
sS'immense pleasure and'
p1794
I76
sS'listening to music'
p1795
I31
sS'good to me'
p1796
I32
sS'yes got it&nbsp;'
p1797
I1
sS'a later date.'
p1798
I114
sS'the week Kishor.<img'
p1799
I1
sS'SUNDAY be productive'
p1800
I38
sS'a Special Member'
p1801
I76
sS'jaggery or dryfruit'
p1802
I21
sS'Roman&quot;;mso-bidi-font-family:Arial;\r\ncolor:#222222">&nbsp;</span></p>\r\n\r\n<p class="MsoNormal" style="margin-bottom:'
p1803
I1
sS'I truly believe'
p1804
I53
sS'style="font-family:&quot;Verdana&quot;,&quot;sans-serif&quot;;\r\nmso-fareast-font-family:&quot;Times New Roman&quot;;mso-bidi-font-family:Arial;\r\ncolor:#222222">I'
p1805
I1
sS'fistful of dryfruits'
p1806
I9
sS'to play with'
p1807
I69
sS'it happen! Am'
p1808
I90
sS'/><br />Waiting to'
p1809
I120
sS'Am I right?'
p1810
I153
sS'ordering out'
p1811
I38
sS'goes live in'
p1812
I76
sS'and Shine and'
p1813
I22
sS'background-repeat: initial;"><span style="font-family:&quot;Verdana&quot;,&quot;sans-serif&quot;;\r\nmso-fareast-font-family:&quot;Times'
p1814
I1
sS'results.</span><br style="box-sizing: border-box;'
p1815
I10
sS'R u chatting'
p1816
I1
sS'src="http://goqii-app.s3.amazonaws.com/emoticons/smiley-laughing.gif" alt="" /></p>'
p1817
I6
sS'line-height: 16.7999992370605px;"><span style="box-sizing:'
p1818
I677
sS'planned to rev'
p1819
I4
sS'finishing your workout????\x9f&nbsp;'
p1820
I1
sS"Hi Mitali<br>How's it"
p1821
I1
sS'rgb(255, 66, 66);"><div'
p1822
I4
sS'energy boost!&nbsp;???\x9f&nbsp;<br data-mce-bogus="1">'
p1823
I2
sS'just got to'
p1824
I182
sS'some crunchy salads'
p1825
I61
sS'to announce that'
p1826
I76
sS'ones, make sure'
p1827
I41
sS'1; color: rgb(255,'
p1828
I282
sS'to get active,'
p1829
I64
sS'to connect with'
p1830
I691
sS'break a chocolate'
p1831
I44
sS'watch this video:&nbsp;</span><a'
p1832
I8
sS'the wrong ones!'
p1833
I22
sS'phone or laptop'
p1834
I2
sS'going to Gym.&nbsp;<br'
p1835
I1
sS'Avoid foods that'
p1836
I186
sS'Cool can u'
p1837
I1
sS'video:&nbsp;</span><a href="http://bit.ly/1smgaiI" target="_blank"><span'
p1838
I2
sS'get back by'
p1839
I2
sS'that you do.'
p1840
I58
sS'to Gym.&nbsp;<br /><br'
p1841
I1
sS'walnuts)&nbsp;Roasted MakhanasRoasted pumpkin'
p1842
I1
sS'data.. The more'
p1843
I22
sS'constantly working towards'
p1844
I94
sS'everyday.. which would'
p1845
I61
sS'for us to'
p1846
I810
sS'font-family: Roboto, sans-serif;">&nbsp;</span></div>\r\n<div><span'
p1847
I2
sS'active by playing'
p1848
I83
sS'GPRS rule in'
p1849
I103
sS'want to highlight'
p1850
I57
sS'href="http://bit.ly/1EAMpVQ" target="_blank"><span style="font-family:&quot;Verdana&quot;,&quot;sans-serif&quot;;mso-fareast-font-family:&quot;Times'
p1851
I1
sS'and ingredient list.'
p1852
I186
sS'!important; opacity: 1'
p1853
I466
sS'Kishor,<br /><br />Waiting'
p1854
I1
sS'and other jaggery'
p1855
I39
sS'SLEEP  8)Prepare'
p1856
I16
sS'line-height: 16.7999992370605px;">Hey &nbsp;Satish,'
p1857
I1
sS'over. ????&nbsp;<br data-mce-bogus="1"></div>'
p1858
I1
sS'a full power'
p1859
I3
sS'highlight a GOQii'
p1860
I55
sS'you!&nbsp;<img class="imageViewerInLarge" src="http://goqii-app.s3.amazonaws.com/user/user/s_1424510585.jpg"'
p1861
I2
sS'of April,here comes'
p1862
I3
sS"that it's about"
p1863
I24
sS'having 2 fruits???\x9f&nbsp;'
p1864
I1
sS'if your body'
p1865
I194
sS'you these days'
p1866
I63
sS'cells and a'
p1867
I62
sS'would be great'
p1868
I627
sS'chopped fruits and'
p1869
I5
sS'may not see'
p1870
I109
sS'here.&nbsp;</span><font color="#5d5d5d" face="Roboto,'
p1871
I1
sS'take you through'
p1872
I407
sS'a major role'
p1873
I10
sS'for you- When'
p1874
I46
sS'to atleast reach'
p1875
I1
sS'1.2;"><br style="box-sizing: border-box;'
p1876
I56
sS'jai mata di'
p1877
I1
sS'Your body makes'
p1878
I63
sS'label.<br style="box-sizing: border-box;'
p1879
I13
sS'text" style="box-sizing: border-box;'
p1880
I663
sS'are getting familiarized'
p1881
I7
sS'options for you-</span><br'
p1882
I1
sS'16.7999992370605px;"></span><span style="box-sizing: border-box;'
p1883
I14
sS'2 grams of'
p1884
I188
sS'and date for'
p1885
I296
sS'bare hands, and'
p1886
I44
sS'know, I can'
p1887
I15
sS'none !important; visibility:'
p1888
I466
sS'not the Quantity'
p1889
I24
sS'would help you'
p1890
I216
sS'on follow up'
p1891
I1
sS'hit your target.'
p1892
I70
sS'will be able'
p1893
I389
sS'you have the'
p1894
I286
sS'together and you'
p1895
I42
sS'Buddy  10'
p1896
I16
sS'your updates,still waiting'
p1897
I1
sS'16.7999992370605px;">We need to'
p1898
I15
sS'up for the'
p1899
I293
sS'Chanas/Chickpeas/Soya nutsMoong or'
p1900
I1
sS'position: relative !important;'
p1901
I466
sS'glad to help'
p1902
I78
sS'pull-right" style="box-sizing: border-box;'
p1903
I581
sS'muscle growth and'
p1904
I25
sS'us try today'
p1905
I1
sS'your half of'
p1906
I2
sS"days.. What's the"
p1907
I1
sS'be aware that'
p1908
I32
sS'by listening to'
p1909
I180
sS'font-size: 14px; line-height:'
p1910
I3968
sS'hi<img src="http://goqii-app.s3.amazonaws.com/emoticons/smiley-kiss.gif" alt=""'
p1911
I1
sS'Saturday, you gave'
p1912
I1
sS'ChillaBoiled Sprout chat'
p1913
I1
sS'look forward to'
p1914
I358
sS'right;"><br style="box-sizing: border-box;'
p1915
I3
sS'last 2 days..'
p1916
I13
sS'all I would'
p1917
I12
sS'currants, figs, apricots)</div>'
p1918
I2
sS'Glad to have'
p1919
I557
sS'to know more'
p1920
I487
sS'enough SLEEP'
p1921
I56
sS'date is May'
p1922
I40
sS'0px;">4. Avoid foods'
p1923
I2
sS'12px; line-height: 20px;"><div'
p1924
I288
sS'margin: 0px; padding:'
p1925
I6303
sS'hit your targets'
p1926
I29
sS'src="http://goqii-app.s3.amazonaws.com/user/user/s_1426669929.jpg" alt="" data-mce-src="http://goqii-app.s3.amazonaws.com/user/user/s_1426669929.jpg">'
p1927
I1
sS'/>Glad to see'
p1928
I225
sS'16.7999992370605px;"><br style="box-sizing: border-box;'
p1929
I1818
sS'(steps counts and'
p1930
I280
sS'meals, your body'
p1931
I47
sS'Energy and Power!'
p1932
I167
sS'the cells.. and'
p1933
I29
sS'active on GOQii'
p1934
I30
sS'with chopped veggies</span></div>\r\n<div><span'
p1935
I2
sS'be able to'
p1936
I1840
sS'in mind and'
p1937
I119
sS'with your bare'
p1938
I44
sS'walks alone or'
p1939
I1
sS'weekend  1)DO'
p1940
I16
sS'19.5px;">&nbsp;Hi Satish. Welcome'
p1941
I1
sS'fruits???\x9f&nbsp; today preferably&nbsp;'
p1942
I1
sS'14px; line-height: 16.7999992370605px;">Proteins'
p1943
I34
sS'Hi player Mitali!'
p1944
I1
sS'or sambhar.<br /><br'
p1945
I1
sS'try to daily'
p1946
I1
sS'seeds and sunflower'
p1947
I4
sS'directly proportional to'
p1948
I86
sS'physical activity that'
p1949
I63
sS'u as my'
p1950
I25
sS'a call to'
p1951
I652
sS'with you today-'
p1952
I18
sS'would love to'
p1953
I1283
sS"you'll know the"
p1954
I24
sS'got it<br data-mce-bogus="1">'
p1955
I1
sS'class="imageViewerInLarge" src="http://goqii-app.s3.amazonaws.com/user/user/s_1424510585.jpg" alt=""'
p1956
I2
sS'a U-turn right'
p1957
I5
sS'all the Energy'
p1958
I167
sS'the more suspicious'
p1959
I186
sS'have got a'
p1960
I154
sS'part of'
p1961
I1521
sS'in afternoon..what to'
p1962
I1
sS'float: right; width:'
p1963
I576
sS'on! Learn some'
p1964
I37
sS'Super cool breakfast...???\x9f&nbsp;<br>So'
p1965
I1
sS'must be aware'
p1966
I52
sS'21.6000003814697px;" /><br style="box-sizing:'
p1967
I530
sS'on the wagon'
p1968
I69
sS'hit those targets'
p1969
I49
sS'10 Tips for'
p1970
I38
sS'fruits or some'
p1971
I33
sS"Let's take a"
p1972
I94
sS'Tejal\r\nGupte, your GOQii'
p1973
I1
sS'positive step towards'
p1974
I8
sS'crap!<br style="box-sizing: border-box;'
p1975
I1
sS'Roman&quot;;\r\nmso-bidi-font-family:Arial;color:#222222">Welcome to GOQii'
p1976
I1
sS'we will discuss\r\nthis'
p1977
I1
sS'16.7999992370605px;">,</span><span style="box-sizing: border-box;'
p1978
I1
sS'for an introductory'
p1979
I365
sS'plz change your'
p1980
I1
sS'14px; line-height: 1.2;'
p1981
I72
sS'some time to'
p1982
I138
sS'can save yourself'
p1983
I171
sS'the workouts is'
p1984
I70
sS'raisins, black currants,'
p1985
I2
sS'progress bar up!&nbsp;???\x8d???\x9f'
p1986
I1
sS'be perfect, we'
p1987
I65
sS'Corn chatWhole wheat'
p1988
I1
sS'Mitali,<span style="color: rgb(93,'
p1989
I2
sS'cells.. and feel'
p1990
I29
sS'get even more'
p1991
I42
sS'using the GOQii'
p1992
I16
sS'It would be'
p1993
I596
sS"I'm chatting through"
p1994
I1
sS'corn syrup on'
p1995
I186
sS'aware that a'
p1996
I5
sS'see your band'
p1997
I53
sS'as well, so'
p1998
I16
sS'with all the'
p1999
I323
sS'Not just because'
p2000
I12
sS'font-family: Roboto, sans-serif;">*at'
p2001
I2
sS'about GOQii, watch'
p2002
I264
sS'you know what'
p2003
I163
sS'able to analyze'
p2004
I23
sS'16.7999992370605px;">Can you share'
p2005
I19
sS'havent installed in'
p2006
I1
sS'to us at'
p2007
I14
sS'cells from the'
p2008
I124
sS'yogurt with crushed'
p2009
I111
sS'or even after'
p2010
I108
sS'padding: 0px; line-height:'
p2011
I421
sS'Thanks for all'
p2012
I94
sS'mind and eat.(Grilled,'
p2013
I66
sS'transparent !important;" title="Grinning'
p2014
I56
sS'Hi Mitali,&nbsp;<span style="box-sizing:'
p2015
I1
sS'over in month'
p2016
I3
sS'14px; line-height: 16.7999992370605px;">https://goqii.com/blog/phytochemicals-why-is-it-important-to-go-colourful/</div>'
p2017
I9
sS'your target. If'
p2018
I42
sS'granola bars, crackers'
p2019
I186
sS'(dates, raisins, black'
p2020
I2
sS'pave way for'
p2021
I29
sS"/><br />Let's get"
p2022
I138
sS'Look for the'
p2023
I186
sS'style="font-family:&quot;Verdana&quot;,&quot;sans-serif&quot;;\r\nmso-fareast-font-family:&quot;Times New Roman&quot;;mso-bidi-font-family:Arial;\r\ncolor:#222222">To'
p2024
I1
sS'and you have'
p2025
I108
sS'go ahead. As'
p2026
I42
sS"<div>Hey Mitali...What's up"
p2027
I1
sS'see your Karma'
p2028
I3
sS'offer to stay'
p2029
I5
sS'was your journey?'
p2030
I2
sS'you are not'
p2031
I691
sS'today- My blog'
p2032
I18
sS'the Quantity of'
p2033
I24
sS'that would help'
p2034
I51
sS'middle; max-width: 64px'
p2035
I299
sS'are exploring the'
p2036
I40
sS'style="font-family:&quot;Verdana&quot;,&quot;sans-serif&quot;;mso-fareast-font-family:&quot;Times New Roman&quot;;\r\nmso-bidi-font-family:Arial;color:#222222">Hope'
p2037
I1
sS'congratulate\r\nyou for taking'
p2038
I1
sS'label and ingredient'
p2039
I186
sS'1)DO YOUR'
p2040
I38
sS'on feeling physically'
p2041
I117
sS"Here's"
p2042
I462
sS'Hi Mitali,<br><br>How are'
p2043
I1
sS'and packaged foods,'
p2044
I37
sS'anthem https://soundcloud.com/goqii/betheforce-goqii that'
p2045
I84
sS'93, 93); font-size:'
p2046
I67
sS'into four pieces'
p2047
I44
sS'full power music'
p2048
I8
sS'figure out if'
p2049
I20
sS'your body with'
p2050
I619
sS"action-packed week!! Let's"
p2051
I105
sS'line-height: 16.7999992370605px;">I believe'
p2052
I7
sS'fruit. How was'
p2053
I1
sS'suitable time and'
p2054
I284
sS'Hey Player,You know'
p2055
I16
sS'to be perfect,'
p2056
I90
sS'and I am'
p2057
I892
sS'background-attachment: initial; background-size:'
p2058
I727
sS'Peanut butterA cup'
p2059
I1
sS'follow up baby.</p>\r\n<p>On'
p2060
I1
sS'2)SPLURGE in'
p2061
I38
sS'sans-serif;">weekend is the'
p2062
I1
sS'keep away from'
p2063
I22
sS'93); font-size: 14px;'
p2064
I53
sS'You can liberally'
p2065
I41
sS'a kingdom of'
p2066
I60
sS'padding: 0px; border:'
p2067
I1564
sS'you drink and'
p2068
I65
sS'it, I feel'
p2069
I1
sS'halt in the'
p2070
I75
sS'up over the'
p2071
I6
sS'Hi,&nbsp;<span style="color: rgb(93,'
p2072
I1
sS'a LAZY SUNDAY'
p2073
I56
sS'ON THE WEEKDAYS'
p2074
I38
sS'Nice start of'
p2075
I4
sS'call and have'
p2076
I9
sS'Ready for some'
p2077
I1
sS'Health Tip:Rather than'
p2078
I25
sS'14px; line-height: 16.7999992370605px;"></span><span'
p2079
I20
sS'back in action!<br'
p2080
I6
sS'left: 0px !important;'
p2081
I466
sS'line-height: 24.0000019073486px;">Do they'
p2082
I1
sS"Hey buddy.. Let's"
p2083
I16
sS'All time favourite'
p2084
I12
sS'black chanas with'
p2085
I4
sS'based puran poli'
p2086
I52
sS'have an interesting'
p2087
I230
sS'8px; padding: 0px;'
p2088
I351
sS'current workout status?</span>'
p2089
I1
sS'sans-serif; line-height: 19.5px;">&nbsp;Hi'
p2090
I1
sS'/>Keep up with'
p2091
I17
sS'workouts is directly'
p2092
I69
sS'in a healthy'
p2093
I125
sS'and you are'
p2094
I332
sS'keep going...!! :)'
p2095
I96
sS'amount of water'
p2096
I302
sS'because Dancing is'
p2097
I12
sS'opacity: 1 !important;'
p2098
I466
sS'the gear to'
p2099
I35
sS'16.7999992370605px;"><span class="emoji emoji1f60a"'
p2100
I14
sS'border-box; margin: 0px'
p2101
I6205
sS'you going for'
p2102
I29
sS'have you been?&nbsp;</span><font'
p2103
I5
sS'start syncing it!</div><div><br></div>'
p2104
I1
sS'with crushed nuts</span><br'
p2105
I1
sS'resolved and see'
p2106
I1
sS'Just try to'
p2107
I20
sS'0px; padding: 0px;"></div><div'
p2108
I930
sS'the Beta Phase.'
p2109
I26
sS'make a correct'
p2110
I37
sS'label that would'
p2111
I37
sS'the fat levels'
p2112
I17
sS'title="Grinning Face" src="chrome-extension://cahedbegdkagmcjfolhdlechbkeaieki/images/apple/1f600.png"'
p2113
I61
sS'party  5)Schedule'
p2114
I16
sS'<img class="imageViewerInLarge" src="http://goqii-app.s3.amazonaws.com/user/user/s_1426669929.jpg"'
p2115
I1
sS'is made up'
p2116
I202
sS'everybody on the'
p2117
I20
sS'what should I'
p2118
I23
sS'Roboto, sans-serif;"></div><div><span style="color:'
p2119
I4
sS'for the small'
p2120
I190
sS'our GOQii App,'
p2121
I250
sS'Willpower too. :)'
p2122
I44
sS'0px; padding: 0px;">Make'
p2123
I1
sS'while purchasing the'
p2124
I39
sS'to our health!</div>\r\n<div'
p2125
I9
sS"It's been great"
p2126
I42
sS'spend on feeling'
p2127
I117
sS'the food.<br style="box-sizing:'
p2128
I1
sS'fill you up'
p2129
I231
sS'the GOQii family'
p2130
I65
sS'and sunflower seedsCorn'
p2131
I1
sS'body metabolism slows'
p2132
I46
sS"action!<br /><br />Let's"
p2133
I1
sS'App, i.e. your'
p2134
I257
sS'body is getting'
p2135
I8
sS'from tomorrow! #betheforce'
p2136
I6
sS'you from getting'
p2137
I1
sS'body makes these'
p2138
I63
sS'counts since last'
p2139
I1
sS"it's about the"
p2140
I25
sS'src="http://goqii-app.s3.amazonaws.com/emoticons/smiley-smile.gif" alt="" />'
p2141
I12360
sS'label.</div><div style="box-sizing: border-box;'
p2142
I7
sS'85, 85); font-family:'
p2143
I84
sS'target. If it'
p2144
I42
sS'have you planned'
p2145
I285
sS'/>A fistful of'
p2146
I2
sS'health tip for'
p2147
I48
sS'current body weight?</div>'
p2148
I15
sS'start our journey,'
p2149
I9
sS'intake of fruits'
p2150
I44
sS'you go,you are'
p2151
I20
sS'to get it'
p2152
I111
sS'to remember these'
p2153
I179
sS'move further with'
p2154
I1
sS'none !important; resize:'
p2155
I466
sS'good to you?'
p2156
I28
sS'get back on'
p2157
I568
sS'protein demand of'
p2158
I7
sS'on the Nutrition'
p2159
I172
sS'4)DONT GO'
p2160
I38
sS'several other benefits'
p2161
I12
sS'I can analyse'
p2162
I249
sS'long walks with'
p2163
I19
sS'updates,still waiting to'
p2164
I1
sS'!important; left: 0px'
p2165
I466
sS'oil and high'
p2166
I187
sS'productive  10)ORDER'
p2167
I16
sS'the product is'
p2168
I187
sS'the food you'
p2169
I131
sS'syncing the band'
p2170
I186
sS'Roboto, sans-serif;">*at times'
p2171
I2
sS'<div class="row text">While\r\n'
p2172
I1
sS'z-index: inherit !important;'
p2173
I466
sS'roaming about places,going'
p2174
I19
sS'of the package.'
p2175
I145
sS'yet. Waiting for'
p2176
I2
sS'we can schedule'
p2177
I298
sS'the next few'
p2178
I135
sS'to analyze it..'
p2179
I22
sS'per laast update'
p2180
I1
sS'for a Healthy'
p2181
I56
sS'replied positive.So if'
p2182
I1
sS"Today's Health Tip"
p2183
I144
sS'your time zone'
p2184
I4
sS'sans-serif; font-size: 14px;'
p2185
I3895
sS'font-family: arial, sans-serif;'
p2186
I770
sS'Roman&quot;;mso-bidi-font-family:Arial;\r\ncolor:#222222">Refer to this'
p2187
I1
sS'it has several'
p2188
I12
sS'Mitali????&nbsp;<br>How was your'
p2189
I1
sS'style="font-size: 14px; line-height:'
p2190
I40
sS'our health!</div>\r\n<div style="box-sizing:'
p2191
I9
sS'the BIG letters'
p2192
I177
sS'is loading!&nbsp;???\x9f&nbsp;<br><br>Which workouts/activities'
p2193
I1
sS'Hey Coach,<br /><br'
p2194
I2
sS'12pt 0in 0.0001pt;'
p2195
I1
sS'veggie salads.&nbsp;<img class="chromoji"'
p2196
I1
sS'active-GET OUTSIDE'
p2197
I38
sS"it's sugar, the"
p2198
I37
sS'targets consistently! When'
p2199
I22
sS'To Start,You have'
p2200
I21
sS'your bare hands,'
p2201
I44
sS'Coach<i>.</i>&nbsp;First of all'
p2202
I1
sS'other benefits too!'
p2203
I12
sS'you can now'
p2204
I80
sS'<p><img src="http://goqii-app.s3.amazonaws.com/emoticons/smiley-laughing.gif" alt=""'
p2205
I3
sS'physically better through'
p2206
I117
sS'sans-serif;">*roasted makhanas</span></div>\r\n<div><span style="color:'
p2207
I2
sS'Rise and Shine'
p2208
I24
sS'are finding it'
p2209
I63
sS'13.3333339691162px;">I have listed'
p2210
I1
sS'like to announce'
p2211
I76
sS'are lined up'
p2212
I9
sS'you ask me'
p2213
I13
sS'list is always'
p2214
I186
sS'you-</span><br style="box-sizing: border-box;'
p2215
I1
sS'my dashboard.<img class="imageViewerInLarge"'
p2216
I3
sS'happen! Am I'
p2217
I90
sS'it started..Our target'
p2218
I1
sS'to highlight a'
p2219
I66
sS'the package. Look'
p2220
I144
sS'the energy boost!&nbsp;???\x9f&nbsp;<br'
p2221
I2
sS'good source of'
p2222
I180
sS'few days\r\nincluding your'
p2223
I1
sS'EXCEL in this!!!'
p2224
I11
sS'good health. :)'
p2225
I20
sS'lapping everybody on'
p2226
I20
sS'izz. so lets'
p2227
I64
sS'Waiting for the'
p2228
I45
sS'week Kishor.<img src="http://goqii-app.s3.amazonaws.com/emoticons/smiley-laughing.gif"'
p2229
I1
sS'I ll try'
p2230
I11
sS'14px; line-height: 16.7999992370605px;">You'
p2231
I128
sS'listening to GOQii'
p2232
I167
sS'a new activity...Keep'
p2233
I22
sS'check out if'
p2234
I9
sS'style="color: rgb(93, 93,'
p2235
I1719
sS'easier for you'
p2236
I35
sS'shopping!</span><div class="row control-group"'
p2237
I1
sS'target for today'
p2238
I84
sS'to take you'
p2239
I394
sS'Roman&quot;;\r\nmso-bidi-font-family:Arial;color:#222222">Hope you are'
p2240
I1
sS'work together to'
p2241
I161
sS'colourful veggie salads.&nbsp;<img'
p2242
I1
sS'other jaggery or'
p2243
I21
sS'lifestyle we can'
p2244
I158
sS'up your weekend?</span>'
p2245
I5
sS'class="msg-box pull-right" style="box-sizing:'
p2246
I578
sS'0px;" /><br style="box-sizing:'
p2247
I638
sS'!important; visibility: inherit'
p2248
I466
sS'for today? I'
p2249
I25
sS'the GOQii Band\r\nand'
p2250
I1
sS'we go ahead.'
p2251
I42
sS'start updating\r\nyour daily'
p2252
I3
sS'as we go'
p2253
I47
sS'levels at bay.</div><div'
p2254
I7
sS'this we can'
p2255
I147
sS'said that Willpower'
p2256
I44
sS'goals too.&nbsp;</span><div style="box-sizing:'
p2257
I2
sS'Start,You have to'
p2258
I21
sS'/><br /><br />'
p2259
I7027
sS'here comes the'
p2260
I63
sS'Mitali<br>Are you going'
p2261
I1
sS'style="font-family:&quot;Verdana&quot;,&quot;sans-serif&quot;;\r\nmso-fareast-font-family:&quot;Times New Roman&quot;;mso-bidi-font-family:Arial;\r\ncolor:#222222"><o:p></o:p></span></p>\r\n\r\n<p'
p2262
I1
sS'hybernate.&nbsp;<img src="http://goqii-app.s3.amazonaws.com/emoticons/smiley-laughing.gif" alt=""'
p2263
I1
sS'obstacles that are'
p2264
I1
sS'you plan&nbsp; to'
p2265
I33
sS'0px; padding: 0px;"><div'
p2266
I19
sS'wheat Grilled SandwichRoasted'
p2267
I1
sS'interesting stuff to'
p2268
I24
sS'makhanas</span></div>\r\n<div><span style="color: #5d5d5d;'
p2269
I2
sS'rgb(93, 93, 93);'
p2270
I3730
sS'href="http://bit.ly/1smgaiI" target="_blank"><span style="font-family:&quot;Verdana&quot;,&quot;sans-serif&quot;;\r\nmso-fareast-font-family:&quot;Times'
p2271
I1
sS'mentioned earlier, the'
p2272
I42
sS'have more information'
p2273
I145
sS'But how ?'
p2274
I1
sS'and nuts (almonds,'
p2275
I3
sS'like to know'
p2276
I1218
sS"am sure it's"
p2277
I65
sS'16.7999992370605px;">I believe you'
p2278
I4
sS'as my coach'
p2279
I25
sS'Coach r u'
p2280
I1
sS'do ON THE'
p2281
I38
sS'initial; background-origin: initial;'
p2282
I736
sS"ways you'd never"
p2283
I109
sS'padding: 0px;">Make a'
p2284
I1
sS"Hey Player... Here's"
p2285
I25
sS'us to work'
p2286
I36
sS'you could watch'
p2287
I57
sS'per your body'
p2288
I130
sS'line-height: 1.2; font-family:'
p2289
I137
sS'the label.</div><div style="box-sizing:'
p2290
I7
sS'update in app'
p2291
I4
sS'Have a fabulous'
p2292
I26
sS'workouts, and keep'
p2293
I1
sS'sunflower seedsCorn salad'
p2294
I1
sS'corn chaat</span><br style="box-sizing:'
p2295
I1
sS'fruits and colourful'
p2296
I24
sS'of sugar)</div><div style="box-sizing:'
p2297
I4
sS'width: 300px; text-align:'
p2298
I472
sS'make your family,'
p2299
I76
sS'hydrogenated oil and'
p2300
I186
sS'and additional fitness'
p2301
I289
sS'years. Your body'
p2302
I57
sS'worked towards achieving'
p2303
I9
sS'time favourite activity!'
p2304
I12
sS'you are using'
p2305
I122
sS'data-mce-src="http://goqii-app.s3.amazonaws.com/user/user/s_1424510585.jpg" style="box-sizing: border-box;'
p2306
I1
sS'in breakfast its'
p2307
I1
sS'/>I stared going'
p2308
I1
sS'!important; background-color: transparent'
p2309
I347
sS'the matter buddy?'
p2310
I2
sS'stores away more'
p2311
I46
sS'interval training, which'
p2312
I24
sS'src="http://goqii-app.s3.amazonaws.com/user/images/s_1398265226.jpg" alt="" />'
p2313
I1
sS'Roboto, sans-serif;">&nbsp;</span></div>\r\n<div><span style="color:'
p2314
I2
sS'As mentioned earlier,'
p2315
I43
sS'soy nuts</span></div>\r\n<div><span style="color:'
p2316
I2
sS'your step counts'
p2317
I858
sS'day or even'
p2318
I107
sS'is preventing you'
p2319
I42
sS'favourite activity! ;)'
p2320
I12
sS'fitness activity) and'
p2321
I207
sS'out our goals'
p2322
I55
sS'0px; padding: 0px;"><br'
p2323
I751
sS'0em !important; border:'
p2324
I299
sS'sans-serif; font-size: 13.3333339691162px;">I'
p2325
I2
sS'and you can'
p2326
I350
sS'to be a'
p2327
I1443
sS'you back in'
p2328
I174
sS'resulting in more'
p2329
I28
sS'font-size: 13.3333339691162px;" /><span'
p2330
I8
sS'facing any obstacles'
p2331
I24
sS"sure it's gonna"
p2332
I72
sS'decode the nutrition'
p2333
I37
sS'results after a'
p2334
I106
sS'steps for the'
p2335
I26
sS"Heya,Today's Health Tip:You"
p2336
I21
sS'play a major'
p2337
I8
sS'active mode.</span><br style="box-sizing:'
p2338
I6
sS'today Mitra!!&nbsp;<br><br>Eager to'
p2339
I1
sS'sans-serif; font-size: 13.3333339691162px;">*boiled'
p2340
I1
sS'your body is'
p2341
I91
sS'you do. Thus,'
p2342
I57
sS'sans-serif;"></div><div><span style="color: rgb(93,'
p2343
I4
sS'this video:&nbsp;</span><a href="http://bit.ly/1smgaiI"'
p2344
I2
sS'additional fitness activity)'
p2345
I198
sS'0px;" />Why add'
p2346
I7
sS'very good source'
p2347
I11
sS'Hey Buddy'
p2348
I121
sS'more about you'
p2349
I682
sS'New Roman&quot;;\r\nmso-bidi-font-family:Arial;color:#222222"><o:p></o:p></span></p>\r\n\r\n<p class="MsoNormal"'
p2350
I1
sS'a health tip'
p2351
I29
sS'not the least,'
p2352
I187
sS'is to get'
p2353
I84
sS'would really like'
p2354
I117
sS'it and we'
p2355
I89
sS'center; font-size: 12px;'
p2356
I314
sS'Colours, which not'
p2357
I24
sS'syrup on the'
p2358
I186
sS'you to check'
p2359
I46
sS'which would pave'
p2360
I61
sS'share with you....Exercise'
p2361
I20
sS'product is made'
p2362
I186
sS'9)Dont have a'
p2363
I38
sS'targeting at 6000'
p2364
I1
sS'from the external'
p2365
I63
sS'20px;"><div class="msg-box pull-right"'
p2366
I297
sS'simple cues and'
p2367
I37
sS'black currants, figs,'
p2368
I2
sS'New Roman&quot;;mso-bidi-font-family:Arial;\r\ncolor:#222222"><o:p></o:p></span></p>\r\n\r\n<p class="MsoNormal"'
p2369
I1
sS'dance and swirl'
p2370
I40
sS'our workouts, and'
p2371
I1
sS'friends , roaming'
p2372
I19
sS':)<br /><br />'
p2373
I1390
sS'are using the'
p2374
I23
sS'your friend! Beware'
p2375
I180
sS'14px; line-height: 16.7999992370605px;">&nbsp;sometimes'
p2376
I2
sS'right away!!&nbsp;</span><br style="box-sizing:'
p2377
I1
sS'Good morning Mitali.'
p2378
I4
sS'and friends, a'
p2379
I76
sS'goal. I would'
p2380
I12
sS'your Karma point'
p2381
I37
sS'getting sync wt'
p2382
I1
sS'in shopping!</span><div class="row'
p2383
I1
sS'multiplied 10 times'
p2384
I118
sS'goals. Since your'
p2385
I48
sS'your current lifestyle'
p2386
I249
sS'you to avoid'
p2387
I30
sS'is not getting'
p2388
I78
sS'missed on follow'
p2389
I1
sS'before you head'
p2390
I232
sS'you on board!!'
p2391
I223
sS'height: 1.2em !important;'
p2392
I157
sS'64px !important; height:'
p2393
I461
sS'can we Gear'
p2394
I22
sS'you excel in'
p2395
I46
sS'<img class="imageViewerInLarge" src="http://goqii-app.s3.amazonaws.com/user/images/s_1398265226.jpg"'
p2396
I1
sS'and routine. To'
p2397
I7
sS'outline-style: none !important;'
p2398
I466
sS"Superr. I'm sure"
p2399
I1
sS'3)Eat like'
p2400
I38
sS'schedule a 20'
p2401
I202
sS'with the Right'
p2402
I22
sS'Roman&quot;;mso-bidi-font-family:Arial;\r\ncolor:#222222">I look forward'
p2403
I1
sS'margin: 0px 0px'
p2404
I829
sS'You are always'
p2405
I96
sS'16.7999992370605px;">If we are,'
p2406
I1
sS'14px; line-height: 16.7999992370605px;">Hey'
p2407
I644
sS'choice while purchasing'
p2408
I37
sS'Roboto, sans-serif;">if you'
p2409
I1
sS'Moreover, you can'
p2410
I97
sS'a halt in'
p2411
I6
sS'even after a'
p2412
I134
sS'and the physical'
p2413
I57
sS'tomato chutney or'
p2414
I4
sS'please share it'
p2415
I15
sS'line-height: 21.6000003814697px;">How\'s your'
p2416
I3
sS'for the day..good'
p2417
I1
sS'alt="" data-mce-src="http://goqii-app.s3.amazonaws.com/user/user/s_1424510585.jpg" style="box-sizing:'
p2418
I1
sS'comes the extension'
p2419
I5
sS'through the GOQii'
p2420
I342
sS'sans-serif;">if you are'
p2421
I1
sS'of time with'
p2422
I44
sS'0.0001pt; background-image: initial;'
p2423
I57
sS'add tremendous value'
p2424
I24
sS'goal is to'
p2425
I146
sS'call to take'
p2426
I215
sS'the app.&nbsp;&nbsp;Let me'
p2427
I2
sS'one of those'
p2428
I62
sS"you share what's"
p2429
I25
sS'background-clip: initial; background-position:'
p2430
I736
sS'steps.<o:p></o:p></span></p>\r\n\r\n<p class="MsoNormal" style="margin-bottom:'
p2431
I1
sS'background-image: url(http://coach.goqii.com/webApp/css-img/emoji.png?v=0.2.2) !important;"></span></span></font><div'
p2432
I7
sS'\r\nrelish jaggery-wheat based'
p2433
I22
sS'band with the'
p2434
I424
sS'on board!! I'
p2435
I8
sS'mango in breakfast'
p2436
I1
sS'plan for today?'
p2437
I50
sS'make our plate'
p2438
I42
sS'power music to'
p2439
I2
sS'started..Our target for'
p2440
I1
sS'There has been'
p2441
I3
sS'we are, then'
p2442
I5
sS'GOAL.. It would'
p2443
I22
sS'really glad to'
p2444
I80
sS'little more about'
p2445
I288
sS'/ Corn chatWhole'
p2446
I1
sS'been a drop'
p2447
I2
sS'New Roman&quot;;\r\nmso-bidi-font-family:Arial;color:#222222">Welcome to'
p2448
I1
sS'more healthy habits.</div><div><br></div><div>https://goqii.com/renewals&nbsp;</div>'
p2449
I2
sS'we spend on'
p2450
I26
sS"Here's what I"
p2451
I12
sS'helps us have'
p2452
I7
sS'correct choice while'
p2453
I37
sS"goals.<br /><br />Let's"
p2454
I5
sS'letters on the'
p2455
I186
sS'16.7999992370605px;">how\'s it going?</span><br'
p2456
I4
sS'0px;"><div style="box-sizing: border-box;'
p2457
I13
sS'body keeping the'
p2458
I7
sS'formal coaching date'
p2459
I45
sS'peanut butter</span></div>\r\n<div><span style="color:'
p2460
I2
sS'a king, nutrition'
p2461
I42
sS'the GOQii concept'
p2462
I211
sS'from you soon.&nbsp;</span><div'
p2463
I1
sS'Grilled SandwichRoasted flavoured'
p2464
I1
sS'Hi Mitali<br>Good Morning.????&nbsp;'
p2465
I1
sS'evening snacking options'
p2466
I3
sS'\r\nbased sweets! If'
p2467
I1
sS'width: 1.2em !important;'
p2468
I157
sS'hear from you..'
p2469
I208
sS"Morning Player,Today's Health"
p2470
I44
sS'Mitali lets try&nbsp;'
p2471
I1
sS'forget to do'
p2472
I20
sS'&amp; pasta with'
p2473
I180
sS'has several other'
p2474
I34
sS'data you pour'
p2475
I22
sS'be multiplied 10'
p2476
I118
sS'with someone else.<br>???\x9f&nbsp;'
p2477
I1
sS'meeting you today'
p2478
I6
sS'a few evening'
p2479
I3
sS'for you-</span><br style="box-sizing:'
p2480
I1
sS'worry if you'
p2481
I88
sS'chopped veggies</span></div>\r\n<div><span style="color:'
p2482
I2
sS'Let us try'
p2483
I89
sS'more about GOQii,'
p2484
I264
sS'important macronutrient-&nbsp;</span><strong style="box-sizing:'
p2485
I6
sS'Currently. I am'
p2486
I1
sS'time and date'
p2487
I616
sS'&nbsp;Satish, I would'
p2488
I1
sS'Satish,<span style="color: rgb(93,'
p2489
I3
sS'line-height: 20px;"><div class="msg-box'
p2490
I297
sS'So when you'
p2491
I74
sS'a week... but'
p2492
I101
sS'see results after'
p2493
I106
sS'the sim to'
p2494
I1
sS'pieces!! :) I'
p2495
I44
sS'from the fruit.'
p2496
I1
sS'have been emphasizing'
p2497
I24
sS'family and encourage'
p2498
I63
sS'so lets be'
p2499
I88
sS'have you on'
p2500
I641
sS'breads, cereals, granola'
p2501
I180
sS'every minute you'
p2502
I66
sS'Hi Mitali<br>I am'
p2503
I1
sS'to share with'
p2504
I659
sS'sure reply.Let that'
p2505
I1
sS'Roboto, sans-serif;">I have'
p2506
I3
sS'the day'
p2507
I4719
sS'about my All'
p2508
I12
sS'for sure reply.Let'
p2509
I1
sS'21.6000003814697px;">How\'s your weekend'
p2510
I3
sS'facing any band/app'
p2511
I29
sS'lets be more'
p2512
I103
sS'a detailed discussion\r\non'
p2513
I1
sS'do let me'
p2514
I420
sS'will be multiplied'
p2515
I118
sS'distey.partial or missing'
p2516
I1
sS'14px; line-height: 16.7999992370605px;">????</span></font>'
p2517
I1
sS'Keep me posted.'
p2518
I38
sS'body.&nbsp;</div><div style="box-sizing: border-box;'
p2519
I7
sS'Gm Satish. Super'
p2520
I1
sS'I would be'
p2521
I859
sS'!important; resize: none'
p2522
I466
sS'A GOQii Life'
p2523
I50
sS'14px; line-height: 16.7999992370605px;">Can'
p2524
I63
sS'would pave way'
p2525
I29
sS'very rightly said'
p2526
I45
sS'love if you'
p2527
I75
sS'calling at 11am.'
p2528
I1
sS'line-height: 1.2;">how have'
p2529
I5
sS'to learn, you'
p2530
I171
sS'make sure you'
p2531
I1100
sS'So here comes'
p2532
I74
sS'play with colours,'
p2533
I40
sS'have worked towards'
p2534
I10
sS'bones, 10 years.'
p2535
I57
sS'buddy... every minute'
p2536
I45
sS'14px; line-height: 16.7999992370605px;">Check'
p2537
I66
sS'0px; color: rgb(93,'
p2538
I2792
sS'ingredient on the'
p2539
I187
sS'refreshed! The quick'
p2540
I29
sS'need to take'
p2541
I151
sS'you at a'
p2542
I115
sS'get it resolved'
p2543
I8
sS'excitement, I would'
p2544
I257
sS'even sleep will'
p2545
I115
sS'Mitz.. u r'
p2546
I1
sS"Heyo,Today's Health Tip:How"
p2547
I15
sS'exciting journey at'
p2548
I131
sS'liberally \r\nrelish jaggery-wheat'
p2549
I22
sS"Hi Buddy! It's"
p2550
I42
sS'Put them together'
p2551
I42
sS'upload your food'
p2552
I47
sS'of the most'
p2553
I326
sS'body with crap!<br'
p2554
I8
sS'serving on the'
p2555
I186
sS'Foods..which will make'
p2556
I22
sS'Satish!<br /><br />Keep'
p2557
I1
sS'Beta Phase. You'
p2558
I26
sS'Tips for a'
p2559
I38
sS'sugar, the product'
p2560
I180
sS'butter</span></div>\r\n<div><span style="color: #5d5d5d;'
p2561
I2
sS'you have already'
p2562
I375
sS'class="emoji emoji1f60a" style="box-sizing:'
p2563
I612
sS'chatting with me'
p2564
I4
sS'packaging, the more'
p2565
I186
sS'Hey Coach r'
p2566
I1
sS'current lifestyle and'
p2567
I50
sS'13.3333339691162px;">*whole wheat grilled'
p2568
I1
sS'Avoid foods with'
p2569
I186
sS'2 fruits???\x9f&nbsp; today'
p2570
I1
sS'have listed down'
p2571
I5
sS'this direction!</span><br style="box-sizing:'
p2572
I1
sS'chocolate bar into'
p2573
I44
sS'the next 2'
p2574
I130
sS'purchasing the food.<br'
p2575
I27
sS'The quick solution'
p2576
I29
sS'style="font-family:&quot;Verdana&quot;,&quot;sans-serif&quot;;\r\nmso-fareast-font-family:&quot;Times New Roman&quot;;mso-bidi-font-family:Arial;\r\ncolor:#222222">Refer'
p2577
I1
sS'for taking a'
p2578
I8
sS'super markets and'
p2579
I32
sS'the reason why'
p2580
I60
sS'the protein demand'
p2581
I11
sS'of dryfruits (dates,'
p2582
I2
sS'line-height: 16.7999992370605px;">PROTEIN.</strong><div style="box-sizing:'
p2583
I7
sS'even more exciting'
p2584
I43
sS'New Roman&quot;;mso-bidi-font-family:Arial;\r\ncolor:#222222">&nbsp;</span></p>\r\n\r\n<p class="MsoNormal"'
p2585
I1
sS'see you back'
p2586
I286
sS'93); font-family: Roboto,'
p2587
I3318
sS'Hey Mitali,&nbsp;<span style="color:'
p2588
I1
sS'sans-serif;">*at times you'
p2589
I2
sS'GOQii band with'
p2590
I276
sS'Hey Mitali which'
p2591
I1
sS'in action!<br /><br'
p2592
I3
sS'from seeing others'
p2593
I66
sS'1)DO YOUR WORKOUTS'
p2594
I38
sS'to have you'
p2595
I864
sS'journey, I\r\nas your'
p2596
I1
sS'tremendous value to'
p2597
I24
sS'the label.<br style="box-sizing:'
p2598
I13
sS'src="chrome-extension://cahedbegdkagmcjfolhdlechbkeaieki/images/apple/1f600.png" alt="????" /><br'
p2599
I22
sS'Life Story -'
p2600
I41
sS'morning Vishal. WOw!!!'
p2601
I1
sS'9)Dont have'
p2602
I38
sS'1.2;">how have you'
p2603
I5
sS'a day or'
p2604
I184
sS'those targets consistently.'
p2605
I49
sS'drink and the'
p2606
I57
sS'Satish. Welcome to'
p2607
I1
sS'1.2em !important; background-color:'
p2608
I103
sS'93, 93); font-family:'
p2609
I3323
sS'you spend on'
p2610
I106
sS'Roman&quot;;mso-bidi-font-family:Arial;\r\ncolor:#222222"><o:p></o:p></span></p>\r\n\r\n<p class="MsoNormal" style="margin-bottom:'
p2611
I1
sS'0px 0px 8px;'
p2612
I351
sS'14px; line-height: 16.7999992370605px;">We'
p2613
I231
sS'100%; height: auto;"></div></div></div></div><div'
p2614
I1
sS'places,going shopping,etc. While'
p2615
I19
sS'to be Great'
p2616
I21
sS'is always the'
p2617
I262
sS'/></span>Do the sound'
p2618
I1
sS'chaat</span><br style="box-sizing: border-box;'
p2619
I1
sS'calories as you'
p2620
I48
sS'are preventing you'
p2621
I6
sS'16.7999992370605px;">You must be'
p2622
I1
sS'buddy! Keep me'
p2623
I22
sS'enabling us to'
p2624
I22
sS'to rev up'
p2625
I11
sS'line-height: 1.2;"><br style="box-sizing:'
p2626
I56
sS'21.6000003814697px;">Relishing your favorite'
p2627
I3
sS'and swirl all'
p2628
I40
sS'our next steps.<o:p></o:p></span></p>\r\n\r\n<p'
p2629
I1
sS'been great engaging'
p2630
I42
sS'will discuss\r\nthis on'
p2631
I1
sS'for all your'
p2632
I105
sS'by day and'
p2633
I108
sS'have us move'
p2634
I1
sS'14px; line-height: 16.7999992370605px;">,</span><span'
p2635
I1
sS'goals, and based'
p2636
I7
sS'!important; max-height: 64px'
p2637
I466
sS'Start to be'
p2638
I21
sS'face="Roboto, sans-serif"><span style="font-size:'
p2639
I35
sS'eat.(Grilled, Poached, Roasted,Steamed)'
p2640
I51
sS'exercise, stretching, nutrition'
p2641
I117
sS'your support and'
p2642
I104
sS'an adequate supply'
p2643
I7
sS'head out for'
p2644
I60
sS'gets over in'
p2645
I4
sS'Run, dance and'
p2646
I40
sS'Buddy,Weekend Health Tip:Weekend'
p2647
I19
sS'Health Tip:Weekend time'
p2648
I19
sS'in.. The better'
p2649
I22
sS'you. We could'
p2650
I49
sS'to this link'
p2651
I341
sS'0px; color: rgb(54,'
p2652
I306
sS'0px;">3. Avoid foods'
p2653
I2
sS'that are preventing'
p2654
I5
sS'is affecting you'
p2655
I106
sS'perfect, we shall'
p2656
I65
sS'you stay \r\nmindful'
p2657
I21
sS'sans-serif; font-size: 13.3333339691162px;"'
p2658
I8
sS'14px; line-height: 16.7999992370605px;">Hope'
p2659
I67
sS'Health Tip:You dont'
p2660
I21
sS'suspicious you should'
p2661
I186
sS'new activity...Keep yourself'
p2662
I22
sS'none; vertical-align: middle;'
p2663
I463
sS'Player,You know Player...'
p2664
I16
sS'get the energy'
p2665
I4
sS'in app calling'
p2666
I2
sS'I feel very'
p2667
I8
sS'GOQii. Be the'
p2668
I7
sS'to share how'
p2669
I7
sS'on this we'
p2670
I410
sS'sans-serif"><span style="font-size: 14px;'
p2671
I33
sS'0px;"></div></div></div></div></div><div class="row date-box"'
p2672
I3
sS'but you know'
p2673
I110
sS'optionsWhole wheat Grilled'
p2674
I1
sS'start of the'
p2675
I281
sS'friend! Beware of'
p2676
I180
sS'preferably&nbsp; during the'
p2677
I1
sS'0px; line-height: 16.7999992370605px;"><br></span></font></div>'
p2678
I9
sS'we were yesterday.'
p2679
I53
sS'line-height: 16.7999992370605px;">Proteins play'
p2680
I7
sS'enjoy my walks'
p2681
I1
sS'calling is very'
p2682
I1
sS'we have more'
p2683
I218
sS'best of time'
p2684
I41
sS'salads everyday.. which'
p2685
I61
sS'favorite food/relaxing/travelling/meeting friends?</span>'
p2686
I3
sS'me know the'
p2687
I707
sS'alt="" /><br /><br'
p2688
I5020
sS'16.7999992370605px;">&nbsp;sometimes inspiration comes'
p2689
I2
sS'font-family: Roboto, sans-serif;'
p2690
I7123
sS'has gifted us'
p2691
I24
sS'padding: 0em !important;'
p2692
I466
sS'font-size: 13.3333339691162px;" /><br'
p2693
I20
sS'eat one of'
p2694
I44
sS'later date. :)'
p2695
I74
sS'r in hybernate.&nbsp;<img'
p2696
I1
sS"Mitali<br>How's it going"
p2697
I1
sS"/>Let's get regular"
p2698
I2
sS'the Action? :)'
p2699
I22
sS'go,you are still'
p2700
I20
sS'add those nasty'
p2701
I24
sS'get regular with'
p2702
I12
sS'others achieve their'
p2703
I64
sS'are walking sessions'
p2704
I1
sS'an interesting stuff'
p2705
I205
sS'I do for'
p2706
I8
sS'Sorry for late'
p2707
I25
sS'and repair which'
p2708
I7
sS'background-color: transparent !important;"'
p2709
I352
sS"Let's get started"
p2710
I119
sS'border: 0px none;'
p2711
I451
sS'font-size: 18px; line-height:'
p2712
I2295
sS'I would like'
p2713
I2882
sS'need to get'
p2714
I206
sS'initial;"><span style="font-family:&quot;Verdana&quot;,&quot;sans-serif&quot;;mso-fareast-font-family:&quot;Times New'
p2715
I1
sS'today than you'
p2716
I25
sS'to GOQii. Glad'
p2717
I8
sS'set up the'
p2718
I180
sS'style="font-family:&quot;Verdana&quot;,&quot;sans-serif&quot;;\r\nmso-fareast-font-family:&quot;Times New Roman&quot;;mso-bidi-font-family:Arial;\r\ncolor:#1155CC">http://bit.ly/1smgaiI</span></a><span'
p2719
I1
sS'you have a'
p2720
I2675
sS'gonna get even'
p2721
I42
sS'then we need'
p2722
I11
sS'to get the'
p2723
I189
sS'from the food'
p2724
I93
sS'Are we constantly'
p2725
I90
sS'padding: 0px;">It\'s easy'
p2726
I1
sS'Mine was rocking.<br>'
p2727
I1
sS'nasty colouring agents'
p2728
I24
sS'0px; color: #5d5d5d;'
p2729
I2347
sS'line-height: 16.7999992370605px;">If we'
p2730
I11
sS'you in ways'
p2731
I108
sS'value to our'
p2732
I24
sS'tomorrow i.e. August'
p2733
I76
sS'change your time'
p2734
I1
sS'to do some'
p2735
I229
sS'that contain partially'
p2736
I186
sS'body cells from'
p2737
I62
sS'you today- My'
p2738
I18
sS'reply.Let that be'
p2739
I1
sS'it easier for'
p2740
I27
sS'Hi Mitra,&nbsp;<span style="box-sizing:'
p2741
I1
sS'font-size: 17.7777786254883px; line-height:'
p2742
I89
sS'6)Do something'
p2743
I38
sS'can schedule a'
p2744
I313
sS'are not burning'
p2745
I46
sS'be Great To'
p2746
I21
sS'hope you are'
p2747
I993
sS'the coaching soon.'
p2748
I4
sS'0px; padding: 0px;"></div></div></div></div></div><div'
p2749
I3
sS'13.3333339691162px;">*fruit yogurt with'
p2750
I1
sS'other toxic agents)..'
p2751
I29
sS'nutrition (food and'
p2752
I311
sS'information about\r\nyour lifestyle'
p2753
I1
sS'Missed meeting you'
p2754
I1
sS'those nasty colouring'
p2755
I24
sS'on interval training,'
p2756
I24
sS'believe you are'
p2757
I100
sS'chat / Corn'
p2758
I3
sS'major role in'
p2759
I9
sS'font-family: Roboto, sans-serif;"></div><div><span'
p2760
I5
sS'preventing you from'
p2761
I46
sS'it is not'
p2762
I241
sS'better self?</div><div><br></div><div>Why delay?'
p2763
I9
sS'I have worked'
p2764
I56
sS'28 days, your'
p2765
I57
sS'initial; background-attachment: initial;'
p2766
I736
sS'to avoid tiredness:)'
p2767
I1
sS'to see you'
p2768
I4944
sS'the day..good going...&nbsp;'
p2769
I1
sS'proportional to delay'
p2770
I89
sS'packaged foods, then'
p2771
I37
sS'analyze it.. Thus,'
p2772
I22
sS'of those pieces!!'
p2773
I44
sS'pieces\r\n<div><br />A fistful'
p2774
I1
sS'mostly of sugar)</div><div'
p2775
I17
sS'difficult.. Grab some'
p2776
I29
sS'about targeting at'
p2777
I1
sS'sure you stay'
p2778
I70
sS'Will do that'
p2779
I46
sS'have a toned'
p2780
I125
sS'you :)<br /><br'
p2781
I17
sS'lifestyle. :)'
p2782
I35
sS'Willpower is an'
p2783
I44
sS'help you make'
p2784
I203
sS'call to start'
p2785
I12
sS'width: 814.875px;"><div class="row'
p2786
I287
sS'Good going with'
p2787
I225
sS'which is preventing'
p2788
I16
sS'13.3333339691162px;">*roasted chickpeas or'
p2789
I1
sS'sure you have'
p2790
I368
sS'sans-serif;">&nbsp;</span></div>\r\n<div><span style="color: #5d5d5d;'
p2791
I2
sS'to hear from'
p2792
I2170
sS'of curd with'
p2793
I12
sS'up the GOQii'
p2794
I162
sS'for the CONSUMER'
p2795
I76
sS'get started with'
p2796
I314
sS'wheat Bread and'
p2797
I2
sS'It is very'
p2798
I111
sS'than aiming to'
p2799
I91
sS'inline !important; left:'
p2800
I466
sS'will make it'
p2801
I127
sS'which explains that'
p2802
I24
sS'to start the'
p2803
I161
sS'too.&nbsp;</span><div style="box-sizing: border-box;'
p2804
I2
sS'these 5 simple'
p2805
I184
sS'Tip:Rather than aiming'
p2806
I25
sS'Kishor,<br /><br /><span'
p2807
I1
sS'drop in your'
p2808
I15
sS'again, your body'
p2809
I46
sS'initial; background-repeat: initial;"><span'
p2810
I217
sS'Roboto, sans-serif; font-size:'
p2811
I6986
sS'Phase. You are'
p2812
I26
sS'plate appealing but'
p2813
I24
sS'every 28 days,'
p2814
I57
sS'Tip :No Matter'
p2815
I20
sS'toxic agents).. How'
p2816
I29
sS'WOw!!! you had'
p2817
I1
sS'it solved and'
p2818
I1
sS'announce that GOQii'
p2819
I76
sS'to music ....<br>How'
p2820
I1
sS'is meeting the'
p2821
I8
sS':)  What'
p2822
I25
sS'Satish its great'
p2823
I1
sS'your goal is'
p2824
I72
sS'and will for'
p2825
I1
sS'class="imageViewerInLarge" src="http://goqii-app.s3.amazonaws.com/user/images/s_1398265226.jpg" alt=""'
p2826
I1
sS'a  part'
p2827
I40
sS'be happy to'
p2828
I99
sS'user with whom'
p2829
I9
sS'What exercise should'
p2830
I1
sS'LAZY SUNDAY be'
p2831
I38
sS"Good Morning Player,Today's"
p2832
I25
sS'54); font-family: Roboto,'
p2833
I298
sS'eat again, your'
p2834
I46
sS'for connecting!Glad to'
p2835
I1
sS'0px; padding: 0px;">5.'
p2836
I14
sS'and indulge in'
p2837
I94
sS'sweets offered to'
p2838
I46
sS'that I can'
p2839
I1467
sS'sure help getting'
p2840
I1
sS'necessary it is'
p2841
I29
sS'kingdom of good'
p2842
I60
sS'over the next'
p2843
I25
sS'flavoured Chanas/Chickpeas/Soya nutsMoong'
p2844
I1
sS'Please start syncing'
p2845
I48
sS'font-family: Roboto, sans-serif;">if'
p2846
I1
sS'LONG INGREDIENT LIST!</div><div'
p2847
I17
sS'and Peanut butterA'
p2848
I1
sS'check out my'
p2849
I28
sS'nuts</span></div>\r\n<div><span style="color: #5d5d5d;'
p2850
I2
sS'cereals, granola bars,'
p2851
I186
sS'font-size: 13.3333339691162px;">*fruit yogurt'
p2852
I1
sS'what buddy, every'
p2853
I99
sS'time  6)Do'
p2854
I16
sS'class="imageViewerInLarge" src="http://goqii-app.s3.amazonaws.com/user/user/s_1426669929.jpg" alt=""'
p2855
I1
sS'numbers are shining'
p2856
I1
sS'padding: 0px;"></span><span style="box-sizing:'
p2857
I124
sS'natural colourful foods!'
p2858
I19
sS'Hello&nbsp;<img src="http://goqii-app.s3.amazonaws.com/emoticons/smiley-smile.gif" alt=""'
p2859
I3
sS'would be glad'
p2860
I238
sS'Quality and not'
p2861
I24
sS'you hit your'
p2862
I53
sS'your journey? Don,t'
p2863
I1
sS'of fruits and'
p2864
I135
sS'14px; line-height: 16.7999992370605px;">When'
p2865
I34
sS'be glad to'
p2866
I133
sS'16.7999992370605px;">Do you??&nbsp;</div>\r\n<div style="box-sizing:'
p2867
I7
sS'sans-serif;">I have listed'
p2868
I2
sS'get connected over'
p2869
I126
sS'your food and'
p2870
I542
sS'GOQii Life Story'
p2871
I50
sS'with it&nbsp;<img src="http://goqii-app.s3.amazonaws.com/emoticons/smiley-smile.gif"'
p2872
I1
sS'which not only'
p2873
I104
sS'you set up'
p2874
I174
sS'Good Morning! Here'
p2875
I105
sS'are chatting with'
p2876
I2
sS'better through exercise,'
p2877
I117
sS'http://goqii.com/blog/lets-dance-for-a-better-health-and-a-better-you/'
p2878
I13
sS'sim to get'
p2879
I1
sS'healthier lifestyle. :)'
p2880
I28
sS'url(http://coach.goqii.com/webApp/css-img/emoji.png?v=0.2.2) !important;"></span></span></font><div class="row'
p2881
I6
sS'A LOVELY WEEKEND'
p2882
I56
sS'me a target,'
p2883
I1
sS'you just got'
p2884
I171
sS'<div><span style="color: #5d5d5d;'
p2885
I18
sS'foods! Colours, which'
p2886
I24
sS'54, 54); font-size:'
p2887
I53
sS'got a kingdom'
p2888
I60
sS'you, it doesn\x83??t'
p2889
I33
sS'some instant cues'
p2890
I37
sS'more fat. :)'
p2891
I37
s.